(dp0
S'policy'
p1
S'sarsa'
p2
sS'model'
p3
(dp4
S'BBAAB0A00'
p5
(dp6
I8
F-62.19999819203741
sI9
F-99.99999817699782
sI6
F-100.0
ssS'00A0AB0B0'
p7
(dp8
I1
F79.99755056
sI2
F79.99998636913789
sI7
F100.0
sI4
F22.6096088652243
sI9
F68.79901223743781
ssS'0BB00AAAB'
p9
(dp10
I1
F-3.987137551674777
sI4
F-47.11252102519359
sI5
F-99.38757163929131
ssS'0B00B0AA0'
p11
(dp12
I1
F79.99755055996485
sI3
F69.62974638088649
sI4
F79.81130181773815
sI6
F-7.566032130242746
sI9
F100.0
ssS'0000BB00A'
p13
(dp14
I1
F-99.59831405608553
sI2
F-99.82167457216741
sI3
F-99.98887545402332
sI4
F-18.404866280680885
sI7
F-99.79451919971481
sI8
F-99.9056453111383
ssS'B0BA0BAA0'
p15
(dp16
I9
F100.0
sI2
F-88.317819793
sI5
F-99.999995217031
ssS'ABAAB0B00'
p17
(dp18
I8
F-4.0
sI9
F-79.66200735929706
sI6
F-99.4555502433596
ssS'AABBBAAB0'
p19
(dp20
I9
F-5.0
ssS'0A0BB00BA'
p21
(dp22
I1
F-99.95577399837235
sI3
F-96.59799397345904
sI6
F-4.0514647741062975
sI7
F-99.99996399789083
ssS'AB000BA0B'
p23
(dp24
I8
F26.806846725473207
sI3
F76.9515056
sI4
F100.0
sI5
F-57.220816107036356
ssS'BABA000AB'
p25
(dp26
I5
F100.0
sI6
F-62.10807425565797
sI7
F-99.999822853
ssS'BA000A0B0'
p27
(dp28
I9
F-3.0990504720636514
sI3
F-79.99995342761012
sI4
F-3.115335474963989
sI5
F-5.951155799227037
sI7
F-43.385896158378166
ssS'AAB0A0B0B'
p29
(dp30
I8
F100.0
sI4
F-100.0
sI6
F-99.99751994160457
ssS'B0B0B00AA'
p31
(dp32
I2
F-94.98482507544657
sI4
F-87.33247396309449
sI6
F-99.99729420852286
sI7
F100.0
ssS'BAB0A000B'
p33
(dp34
I8
F100.0
sI4
F-99.90814595117338
sI6
F78.41205271589023
sI7
F-99.69378107255037
ssS'ABA0BB0A0'
p35
(dp36
I9
F-93.9514841401256
sI4
F-2.412390625196238
sI7
F-99.90559295389306
ssS'A000B000B'
p37
(dp38
I2
F-77.9707563867087
sI3
F-2.9543641791478445
sI4
F-76.39348712449001
sI6
F-66.87403680030056
sI7
F-39.423275165251006
sI8
F-78.21240075694674
ssS'BA0B0BA0A'
p39
(dp40
I8
F100.0
sI3
F37.67629176443815
sI5
F80.0
ssS'0B000B00A'
p41
(dp42
I1
F-78.35679746977236
sI3
F-79.99821182116355
sI4
F-78.05593102223364
sI5
F-66.86779702848263
sI7
F42.91696359674082
sI8
F-54.774984662066615
ssS'BB00BAA00'
p43
(dp44
I8
F-99.99922460865794
sI9
F-99.99923572993067
sI3
F-99.99918901549053
sI4
F-100.0
ssS'AAB0BBABA'
p45
(dp46
I4
F100.0
ssS'000BB000A'
p47
(dp48
I1
F-99.88651321749492
sI2
F-99.99959912201871
sI3
F-99.90814528156936
sI6
F16.98505933634918
sI7
F-82.5700674517152
sI8
F-96.46867842476284
ssS'BAB0AA00B'
p49
(dp50
I8
F100.0
sI4
F99.99999999999993
sI7
F80.0
ssS'ABA0BB000'
p51
(dp52
I8
F-99.95101110538843
sI9
F-99.99999776794779
sI4
F-99.94023530301259
sI7
F-99.99999933038008
ssS'BBABAA000'
p53
(dp54
I8
F-46.42642982787086
sI9
F100.0
sI7
F100.0
ssS'AA00BBABB'
p55
(dp56
I3
F100.0
sI4
F100.0
ssS'B000ABB0A'
p57
(dp58
I8
F-99.9969382
sI2
F-99.44094755256901
sI3
F-99.9851486043808
sI4
F-57.20002827884454
ssS'B0BB00AA0'
p59
(dp60
I9
F100.0
sI2
F46.39999464307161
sI5
F34.940346442682255
sI6
F-95.44827674512018
ssS'AABBA00B0'
p61
(dp62
I9
F100.0
sI6
F-3.999999999368284
sI7
F-3.9987384535836377
ssS'B00BBAA00'
p63
(dp64
I8
F-88.56814419036324
sI9
F79.99603796272989
sI2
F-93.903011199297
sI3
F-58.797917330744525
ssS'ABA0B0B0A'
p65
(dp66
I8
F-3.9995485307242773
sI4
F-99.29102558954582
sI6
F100.0
ssS'0AB00ABB0'
p67
(dp68
I1
F-99.9987810903686
sI4
F-99.99992696171348
sI5
F-99.69371252945777
sI9
F-99.99899804111493
ssS'0ABAB0000'
p69
(dp70
I8
F-95.74853257203166
sI1
F-99.69133994198361
sI7
F19.23546398386632
sI6
F-99.99891015174201
sI9
F-99.42460877645297
ssS'ABB0B0AAB'
p71
(dp72
I4
F100.0
sI6
F-5.0
ssS'0B0000000'
p73
(dp74
I1
F-23.674556722200062
sI3
F-19.261011932525477
sI4
F-57.80169588605214
sI5
F-50.46626599678225
sI6
F-59.247446745634065
sI7
F-32.7329420634695
sI8
F-29.844439771732866
sI9
F-39.238307998627036
ssS'AABBBA0B0'
p75
(dp76
I9
F-100.0
sI7
F-5.0
ssS'BB0AA00B0'
p77
(dp78
I9
F-98.07388339983865
sI3
F62.35998978160963
sI6
F100.0
sI7
F-96.59776823868067
ssS'BBABAA00B'
p79
(dp80
I8
F-100.0
sI7
F100.0
ssS'00AA00BB0'
p81
(dp82
I1
F-96.59191078434016
sI2
F-68.81920253057527
sI5
F-91.42917236847256
sI6
F-87.50836824629718
sI9
F63.9999803523906
ssS'BBA0BA000'
p83
(dp84
I8
F-47.32702510177167
sI9
F100.0
sI4
F-85.25798428280731
sI7
F-58.39902058574941
ssS'AB0AB00AB'
p85
(dp86
I3
F-2.412396334397553
sI6
F-3.8569702924915052
sI7
F100.0
ssS'0B0AA00B0'
p87
(dp88
I7
F79.99999999998418
sI1
F79.99999732153736
sI3
F79.97278399898057
sI6
F100.0
sI9
F79.99181535953599
ssS'AAB00A0BB'
p89
(dp90
I4
F-62.17244137996417
sI5
F-99.45435721326622
sI7
F13.652860404515778
ssS'ABBA000BA'
p91
(dp92
I5
F99.99999987085984
sI6
F-84.9492649717725
sI7
F100.0
ssS'BAABBA000'
p93
(dp94
I8
F-99.99999999999923
sI9
F100.0
sI7
F26.000243840475036
ssS'ABB0ABA00'
p95
(dp96
I8
F-99.99751976288661
sI9
F100.0
sI4
F100.0
ssS'ABB0B0AA0'
p97
(dp98
I9
F100.0
sI4
F100.0
sI6
F80.0
ssS'AAB0ABBB0'
p99
(dp100
I9
F100.0
sI4
F-100.0
ssS'000BBA0BA'
p101
(dp102
I1
F-99.52763911295878
sI2
F-5.433098879269888
sI3
F100.0
sI7
F-99.45565989290832
ssS'BBA0ABB0A'
p103
(dp104
I8
F-100.0
sI4
F-5.0
ssS'0BA0BABAB'
p105
(dp106
I1
F-5.0
sI4
F-100.0
ssS'BBAB000A0'
p107
(dp108
I9
F-99.86909046690641
sI5
F-99.89980362713936
sI6
F-99.99862287443409
sI7
F76.9759998548966
ssS'0A00A0BB0'
p109
(dp110
I1
F-99.99999949515622
sI3
F-94.77937999592166
sI4
F-99.99999998514286
sI6
F-99.88652768428035
sI9
F-5.969902143475317
ssS'B00000B0A'
p111
(dp112
I2
F-79.29399663644018
sI3
F-99.9081459840371
sI4
F-17.67237478922936
sI5
F-99.99999999928993
sI6
F-96.5979799115194
sI8
F-99.99997460049035
ssS'AAB0BBAB0'
p113
(dp114
I9
F-100.0
sI4
F100.0
ssS'BBA0B00AA'
p115
(dp116
I4
F80.0
sI6
F100.0
sI7
F100.0
ssS'B000A0AB0'
p117
(dp118
I9
F-4.332367217731326
sI2
F1.4060044245420373
sI3
F100.0
sI4
F79.09279840898009
sI6
F79.6975999775804
ssS'AB00B00A0'
p119
(dp120
I9
F14.271875010722304
sI3
F-44.290677800341506
sI4
F-34.65034233539295
sI6
F-42.090366341440216
sI7
F-31.44841955616856
ssS'BABAB00BA'
p121
(dp122
I6
F-100.0
sI7
F-5.0
ssS'0ABB0A000'
p123
(dp124
I8
F-3.1675127008715536
sI1
F-8.001299762877323
sI7
F2.813141334532217
sI5
F-3.037597740172591
sI9
F-51.86566771328884
ssS'ABBABA000'
p125
(dp126
I8
F-99.68203705110967
sI9
F-99.99994685589999
sI7
F100.0
ssS'B0B00BA0A'
p127
(dp128
I8
F100.0
sI2
F56.547305846422574
sI4
F-99.69089525308586
sI5
F-76.96772773646776
ssS'AB00B0A00'
p129
(dp130
I8
F79.99999995660895
sI9
F-96.50614583688798
sI3
F-99.97216745975234
sI4
F100.0
sI6
F-79.67197744601665
ssS'0BA00B000'
p131
(dp132
I1
F-79.64941762790761
sI4
F-50.40051260092667
sI5
F-3.2588120244392487
sI7
F-65.45458477321111
sI8
F-34.037007254119985
sI9
F-79.99965916466577
ssS'B0A0ABB00'
p133
(dp134
I8
F-93.94951897775344
sI9
F-99.83670388717574
sI2
F-99.99999945749269
sI4
F-4.168059029008592
ssS'0A00BA0B0'
p135
(dp136
I7
F-19.72629329064275
sI1
F-54.43638883031506
sI3
F79.72777494326988
sI4
F-26.137330692860615
sI9
F-56.64130806876273
ssS'00A0AB0BB'
p137
(dp138
I1
F-99.61372693373112
sI2
F26.035823060004248
sI4
F-85.99999982115153
sI7
F100.0
ssS'0B0BAAA0B'
p139
(dp140
I8
F-3.9999999999833524
sI1
F72.44034720818033
sI3
F100.0
ssS'00A0ABB00'
p141
(dp142
I8
F32.47591872911728
sI1
F24.9902364597813
sI2
F-31.99989285057653
sI4
F-2.382693031637863
sI9
F-3.28798364159947
ssS'BBA0000AB'
p143
(dp144
I4
F-98.18559999997517
sI5
F-3.4819299843516136
sI6
F-98.61332929833084
sI7
F-99.99999326823506
ssS'A000A0B0B'
p145
(dp146
I8
F61.331369212113565
sI2
F-49.836175874467
sI3
F-99.99993295092862
sI4
F-96.29390418177726
sI6
F-99.99999999999996
ssS'0A000BB00'
p147
(dp148
I1
F-60.228955763647186
sI3
F-74.38072533624957
sI4
F-79.04602165143393
sI5
F-39.30457011315634
sI8
F-78.7808858744239
sI9
F-79.4843088207937
ssS'0BABB00A0'
p149
(dp150
I1
F-99.99999999999375
sI7
F-99.69288135676699
sI6
F-0.24244557210865736
sI9
F-99.9999999998706
ssS'ABAAB0B0B'
p151
(dp152
I8
F-5.0
sI6
F-100.0
ssS'BAABB000A'
p153
(dp154
I8
F-100.0
sI6
F100.0
sI7
F-99.99150937773612
ssS'BABA0ABAB'
p155
(dp156
I5
F99.99999999990585
ssS'BA0BB0A0A'
p157
(dp158
I8
F100.0
sI3
F-98.97915652279248
sI6
F80.0
ssS'000000A0B'
p159
(dp160
I1
F-54.33832321906938
sI2
F-55.733551943626246
sI3
F-41.429548994232796
sI4
F-43.23355107990198
sI5
F-48.71068427252191
sI6
F-0.3274453377739466
sI8
F-65.17162518284775
ssS'AB0B00AB0'
p161
(dp162
I9
F-57.20096422012689
sI3
F-95.45467610609722
sI5
F80.0
sI6
F-10.048000094859832
ssS'A0B000B00'
p163
(dp164
I2
F-99.9982351336594
sI4
F-99.99999979904867
sI5
F2.7939242801778974
sI6
F-91.7429329809982
sI8
F-99.99999607483636
sI9
F-99.99977334141042
ssS'A00BAB0AB'
p165
(dp166
I2
F100.0
sI3
F79.99999999999939
sI7
F37.68299290322345
ssS'AABBABB00'
p167
(dp168
I8
F100.0
sI9
F100.0
ssS'A00B0AB00'
p169
(dp170
I8
F50.684659653384145
sI9
F-30.958596583633636
sI2
F-14.867957463710134
sI3
F62.561568017967254
sI5
F-9.47178980495276
ssS'BA0B000AB'
p171
(dp172
I3
F-85.99999392413002
sI5
F100.0
sI6
F-85.16592212073537
sI7
F38.39987056811856
ssS'0000A00B0'
p173
(dp174
I1
F4.40931983844537
sI2
F-8.419997278301048
sI3
F65.315977306231
sI4
F-16.683183549729346
sI6
F-2.92448513334515
sI7
F-10.59568208033685
sI9
F1.279704787400597
ssS'B0B0A0A0B'
p175
(dp176
I8
F-99.99999999999991
sI2
F-99.9998608687462
sI4
F-100.0
sI6
F-62.19426509624216
ssS'A0A0BBAB0'
p177
(dp178
I9
F-99.99999996125796
sI2
F100.0
sI4
F99.999995217031
ssS'ABABA0B00'
p179
(dp180
I8
F-3.9987384769744976
sI9
F100.0
sI6
F55.4195114680738
ssS'0ABB0A0B0'
p181
(dp182
I1
F-74.59671423191833
sI7
F-4.0
sI5
F-4.184546222811907
sI9
F-62.60244727736433
ssS'0AB0BA000'
p183
(dp184
I8
F-92.81328902569423
sI1
F-98.29896981436048
sI7
F-3.168824243110125
sI4
F-99.99535188232034
sI9
F-76.57906790661711
ssS'00B0BAA00'
p185
(dp186
I8
F-47.91555031388127
sI1
F17.405088481499867
sI2
F-2.9355716002359493
sI4
F-56.37182005620062
sI9
F-3.2117545243680623
ssS'A00B0B0AB'
p187
(dp188
I2
F-99.99999978845425
sI3
F-99.99999966054915
sI5
F-99.99999971002308
sI7
F-99.99999932989618
ssS'AA00BB00B'
p189
(dp190
I8
F26.005569960185014
sI3
F100.0
sI4
F-99.87704873585169
sI7
F-99.88056309373896
ssS'B000AA00B'
p191
(dp192
I8
F76.97600012878763
sI2
F79.99999999999682
sI3
F79.99999985536277
sI4
F100.0
sI7
F79.9975505560858
ssS'B00AAB0AB'
p193
(dp194
I2
F100.0
sI3
F80.0
sI7
F-99.97167294301417
ssS'B00A0B00A'
p195
(dp196
I8
F-3.1886401658564325
sI2
F-3.199221696571829
sI3
F-3.1906380985300227
sI5
F-47.92582661322428
sI7
F21.810309382841222
ssS'00AA0BB0B'
p197
(dp198
I8
F-4.0
sI1
F-99.99999886522642
sI2
F-95.7998972429302
sI5
F-98.1842415895643
ssS'ABB0A0A0B'
p199
(dp200
I8
F-99.95096477310337
sI4
F100.0
sI6
F1.7682802531148702
ssS'ABB00B00A'
p201
(dp202
I8
F79.9999999960948
sI4
F46.39999999999715
sI5
F100.0
sI7
F80.0
ssS'AABB000B0'
p203
(dp204
I9
F-79.9999998553524
sI5
F-79.96813942347411
sI6
F-79.9999999999996
sI7
F-79.99999993129744
ssS'BABABB00A'
p205
(dp206
I8
F-100.0
sI7
F-5.0
ssS'0BAAA0B0B'
p207
(dp208
I8
F-3.840385458454923
sI1
F-98.13070977546647
sI6
F100.0
ssS'ABAB00000'
p209
(dp210
I8
F-4.494112408717768
sI9
F46.39976011345378
sI5
F79.9085449172989
sI6
F-1.1199813206419895
sI7
F-64.26800304049132
ssS'BA00B0ABA'
p211
(dp212
I3
F13.784422707676583
sI4
F-4.0
sI6
F-3.9999999999999596
ssS'0A0BBABA0'
p213
(dp214
I1
F-99.69379388459386
sI3
F-99.6938174331742
sI9
F-99.99999996125796
ssS'A0BA000B0'
p215
(dp216
I9
F52.08498398028014
sI2
F-46.25364660326741
sI5
F79.09280002169547
sI6
F70.14322078491335
sI7
F100.0
ssS'BAAB000B0'
p217
(dp218
I9
F-99.79426751757855
sI5
F-98.95183914762991
sI6
F-99.99969774489331
sI7
F-79.99999951787646
ssS'0BB0ABA00'
p219
(dp220
I8
F-99.99999999998923
sI1
F-88.55987310771212
sI4
F-99.999999951185
sI9
F-99.9992559679555
ssS'AABB0000B'
p221
(dp222
I8
F-98.97931320741884
sI5
F-99.69378295657401
sI6
F-79.870629757796
sI7
F-99.93454406187178
ssS'0A000B0BA'
p223
(dp224
I1
F-36.649851444141646
sI3
F29.82414044417772
sI4
F-3.0804188892385502
sI5
F-3.05214371783954
sI7
F-67.08077625819547
ssS'00ABB00AB'
p225
(dp226
I1
F-99.9942700285133
sI2
F-99.99162289392918
sI6
F-99.99423256058957
sI7
F-99.99880346501357
ssS'ABAB0000B'
p227
(dp228
I8
F-26.184428293832973
sI5
F-4.000009327454349
sI6
F-79.99999999978256
sI7
F-79.70328607743619
ssS'0B0BA0000'
p229
(dp230
I1
F-34.306593781465544
sI3
F-32.994883094881196
sI6
F-52.49659877283569
sI7
F-3.5643864234885525
sI8
F-78.08579104088402
sI9
F-60.549616885224125
ssS'B0AB0A0B0'
p231
(dp232
I9
F100.0
sI2
F-98.58751069948019
sI5
F-47.03050192446979
sI7
F46.39980159535999
ssS'B000ABAB0'
p233
(dp234
I9
F-8.959548428311354
sI2
F-57.20001795480777
sI3
F100.0
sI4
F-76.95143892525864
ssS'0A00BB000'
p235
(dp236
I1
F-99.68548609912733
sI3
F-98.67318158632102
sI4
F-79.99999999998937
sI7
F-97.79021077653259
sI8
F-99.98978715266576
sI9
F-99.874117655322
ssS'B00BA0ABA'
p237
(dp238
I2
F-3.523719999384796
sI3
F100.0
sI6
F-3.5225530118660284
ssS'BABB0A000'
p239
(dp240
I8
F-99.97213359975981
sI9
F-99.78594818844942
sI5
F-99.98513592656893
sI7
F-19.96138977811711
ssS'0BB0A00AB'
p241
(dp242
I1
F-99.99999999148599
sI4
F-99.9999999853555
sI6
F-99.99999999218957
sI7
F-99.99999998192038
ssS'AABBBA000'
p243
(dp244
I8
F-99.99998928542581
sI9
F-79.67229082959257
sI7
F-4.0
ssS'AB00AAB0B'
p245
(dp246
I8
F18.94602995876091
sI3
F-99.98354676611807
sI4
F100.0
ssS'00BBBA0AA'
p247
(dp248
I1
F-61.80196397903043
sI2
F-99.99977678893906
sI7
F100.0
ssS'BB00A00BA'
p249
(dp250
I3
F73.10718385726062
sI4
F-99.4473774269349
sI6
F-88.65750466600448
sI7
F-62.199999999999974
ssS'00AB0AABB'
p251
(dp252
I1
F80.0
sI2
F80.0
sI5
F100.0
ssS'BBAAA00BB'
p253
(dp254
I6
F100.0
sI7
F100.0
ssS'B0ABA000B'
p255
(dp256
I8
F-96.28925101559608
sI2
F-99.90722608083524
sI6
F-99.69124446607587
sI7
F100.0
ssS'ABAB0A0BB'
p257
(dp258
I5
F-100.0
sI7
F-100.0
ssS'0ABB0A0BA'
p259
(dp260
I1
F-3.5108291912626695
sI5
F-3.9556293877586506
sI7
F-3.999999999996234
ssS'BABAB0000'
p261
(dp262
I8
F-100.0
sI9
F-99.99999999978911
sI6
F-100.0
sI7
F-99.99999999921482
ssS'00B0BAA0B'
p263
(dp264
I8
F-93.95199900933476
sI1
F-3.956778217255774
sI2
F-26.554221074296386
sI4
F-99.99999999862118
ssS'0BAB00ABA'
p265
(dp266
I1
F-99.665269708408
sI5
F100.0
sI6
F99.99999999999977
ssS'000AB0BAB'
p267
(dp268
I1
F-99.99997519941999
sI2
F-95.789794
sI3
F-99.98487304231753
sI6
F-99.99999999999878
ssS'ABABB0A00'
p269
(dp270
I8
F-32.79559092119878
sI9
F-100.0
sI6
F-73.742972270666
ssS'BAA00ABB0'
p271
(dp272
I9
F100.0
sI4
F-95.5754317
sI5
F-99.9980317
ssS'BAB00B00A'
p273
(dp274
I8
F-35.02400000010543
sI4
F-4.4344106810130635
sI5
F-3.9999999979497702
sI7
F1.3348688561015045
ssS'000B0BA00'
p275
(dp276
I1
F-99.99781738652446
sI2
F-99.99553111155701
sI3
F-96.59777679434447
sI5
F49.30550534620449
sI8
F-99.70266509833628
sI9
F-99.99999998492032
ssS'0BB0BAA00'
p277
(dp278
I8
F26.014696641539558
sI1
F-99.99999933032106
sI4
F-99.99999995118502
sI9
F-99.9999999853555
ssS'A0BB0AB0A'
p279
(dp280
I8
F-95.47377871527999
sI2
F-96.25597678775691
sI5
F100.0
ssS'AB00ABA0B'
p281
(dp282
I8
F-99.69379808847853
sI3
F100.0
sI4
F100.0
ssS'BBAAA000B'
p283
(dp284
I8
F79.9999999999774
sI6
F100.0
sI7
F99.99999999999923
ssS'0B0BA0BA0'
p285
(dp286
I1
F-3.857106369360866
sI3
F-32.74925527347733
sI6
F-26.039409188717727
sI9
F-99.97053174001253
ssS'0ABB0AA0B'
p287
(dp288
I8
F-3.9949847419851294
sI1
F-4.0
sI5
F-3.9961421092192264
ssS'B0ABBAAB0'
p289
(dp290
I9
F100.0
sI2
F-100.0
ssS'B000BA0A0'
p291
(dp292
I9
F76.97393351490781
sI2
F-97.13507847038709
sI3
F-99.91299305820255
sI4
F-99.98668663514805
sI7
F-47.83760637958005
ssS'0BB0AA000'
p293
(dp294
I8
F-88.64514171792106
sI1
F65.49857209121203
sI7
F-98.1621896001014
sI4
F100.0
sI9
F-99.999979906585
ssS'ABA00AB0B'
p295
(dp296
I8
F-4.0
sI4
F-93.95159239008554
sI5
F-93.93690518182693
ssS'AB0BA00B0'
p297
(dp298
I9
F100.0
sI3
F79.0928
sI6
F-5.088247324915491
sI7
F79.5237199172265
ssS'BAB00ABBA'
p299
(dp300
I4
F-100.0
sI5
F-100.0
ssS'B000A0BBA'
p301
(dp302
I2
F-99.93626813240027
sI3
F-99.9850652427157
sI4
F-3.8141466147785588
sI6
F-99.90811980996074
ssS'AAB0ABB00'
p303
(dp304
I8
F100.0
sI9
F100.0
sI4
F-99.9999999317507
ssS'BABBAA000'
p305
(dp306
I8
F100.0
sI9
F-99.83666828692851
sI7
F-3.9959973365230623
ssS'A0BA00B0B'
p307
(dp308
I8
F-99.99999182929714
sI2
F-100.0
sI5
F-99.99997936778773
sI6
F-99.99993182642966
ssS'A00ABBBAB'
p309
(dp310
I2
F-100.0
sI3
F-5.0
ssS'0000AB0BA'
p311
(dp312
I1
F100.0
sI2
F6.454391617147866
sI3
F63.41691230539455
sI4
F39.76771375828989
sI7
F79.99950547905027
ssS'ABAB0BBA0'
p313
(dp314
I9
F-100.0
sI5
F-5.0
ssS'0A0ABB00B'
p315
(dp316
I8
F-99.99999999998681
sI1
F-99.99999999996442
sI3
F-99.99999999998681
sI7
F-99.99999999999903
ssS'ABABABB00'
p317
(dp318
I8
F-5.0
sI9
F100.0
ssS'A0BB0000A'
p319
(dp320
I8
F52.46944465442509
sI2
F-75.93478493149722
sI5
F100.0
sI6
F75.7590555943782
sI7
F79.99779255564808
ssS'B0A00BA0B'
p321
(dp322
I8
F-62.188500510045955
sI2
F-92.39609158058339
sI4
F-99.90811791279314
sI5
F100.0
ssS'AABB0BA00'
p323
(dp324
I8
F-99.99999999999997
sI9
F-99.99999998535542
sI5
F-98.97937388487054
ssS'0BB0B0AA0'
p325
(dp326
I1
F79.95712534944634
sI4
F26.122140352518528
sI6
F-96.59799705446129
sI9
F100.0
ssS'BB0A0000A'
p327
(dp328
I8
F-98.58356080815328
sI3
F26.736631904421657
sI5
F-97.03710554240351
sI6
F-99.68201265720636
sI7
F-99.97881144808431
ssS'000ABBA00'
p329
(dp330
I8
F-32.540496972203925
sI1
F100.0
sI2
F14.579987850362336
sI3
F25.851446109148476
sI9
F22.03391296039721
ssS'0BAAAB00B'
p331
(dp332
I8
F55.27628291801322
sI1
F13.682865223395588
sI7
F100.0
ssS'BABAABB0A'
p333
(dp334
I8
F100.0
ssS'ABB0000A0'
p335
(dp336
I9
F-16.34193897318039
sI4
F75.20816336652196
sI5
F-0.9267435109784952
sI6
F33.93147216905494
sI7
F46.40214440045098
ssS'BAABA000B'
p337
(dp338
I8
F100.0
sI6
F-99.97162662694006
sI7
F100.0
ssS'AABB00B00'
p339
(dp340
I8
F-99.99999199284403
sI9
F-96.57037081186067
sI5
F79.99998199891378
sI6
F-99.99574185835903
ssS'00000BA0B'
p341
(dp342
I1
F-89.36163287135639
sI2
F-99.61720403742616
sI3
F-69.8647774062303
sI4
F-99.98979379606658
sI5
F-99.90814414992349
sI8
F-99.99961571696927
ssS'0A00BB0A0'
p343
(dp344
I7
F-99.68555313999865
sI1
F-88.63241155792315
sI3
F-88.64929435445315
sI4
F-79.14843378996143
sI9
F-99.90814545282245
ssS'00A0BBBAA'
p345
(dp346
I1
F-32.79999962324089
sI2
F-99.99999971072432
sI4
F-4.0
ssS'00ABAB0B0'
p347
(dp348
I1
F80.0
sI2
F79.99993449492244
sI7
F100.0
sI9
F79.99999999609196
ssS'AAB000B0B'
p349
(dp350
I8
F-99.99997987865179
sI4
F-100.0
sI5
F-99.99999251096244
sI6
F-99.99908145951181
ssS'AABB00B0A'
p351
(dp352
I8
F-85.22794359326832
sI5
F100.0
sI6
F38.67022981287184
ssS'000BAB0AB'
p353
(dp354
I1
F-99.82064536664873
sI2
F100.0
sI3
F79.84425618686868
sI7
F-99.9996812998657
ssS'BAB0ABB0A'
p355
(dp356
I8
F100.0
sI4
F-5.0
ssS'BBA0AB000'
p357
(dp358
I8
F0.34579410857838155
sI9
F-12.461225787848257
sI4
F-3.5108601641048085
sI7
F100.0
ssS'ABBAABBA0'
p359
(dp360
I9
F100.0
ssS'BABA00BAB'
p361
(dp362
I5
F100.0
sI6
F-100.0
ssS'AB000A00B'
p363
(dp364
I8
F-3.0076109289643416
sI3
F-67.256658158883
sI4
F-32.90716943653254
sI5
F-3.0929047182711145
sI7
F-3.0203437726509934
ssS'AB0000000'
p365
(dp366
I3
F-2.4597577909792614
sI4
F-16.553297270016575
sI5
F16.874340110225127
sI6
F-5.502811352841425
sI7
F51.79145033946418
sI8
F-1.5050899131295745
sI9
F-43.350052828991544
ssS'BB00A00A0'
p367
(dp368
I9
F-99.98979383800629
sI3
F-3.2026166483986267
sI4
F-99.17203848932508
sI6
F-99.97244258539759
sI7
F-88.66
ssS'B00B0000A'
p369
(dp370
I2
F-99.98976840311573
sI3
F-99.92807096801295
sI5
F-99.9657451070992
sI6
F-99.87814386842044
sI7
F39.265065612348025
sI8
F-99.87630959477389
ssS'AB000B0AB'
p371
(dp372
I3
F-5.436411789749927
sI4
F-93.95197986270936
sI5
F-93.952
sI7
F-85.58041776794778
ssS'BA0AABB0B'
p373
(dp374
I8
F100.0
sI3
F-100.0
ssS'AABB0AABB'
p375
(dp376
I5
F-5.0
ssS'AABABA0BB'
p377
(dp378
I7
F100.0
ssS'BABAABB00'
p379
(dp380
I8
F100.0
sI9
F-5.0
ssS'ABA00BB00'
p381
(dp382
I8
F-19.960000006183236
sI9
F-80.0
sI4
F-79.99999745544501
sI5
F1.0015081645148136
ssS'00A00000B'
p383
(dp384
I1
F2.840410333978575
sI2
F-66.40986256048208
sI4
F-39.22034054776977
sI5
F-41.78866975541582
sI6
F-25.455865609929646
sI7
F44.03574906328545
sI8
F-53.391538002888055
ssS'00BBA000A'
p385
(dp386
I8
F79.99934986745407
sI1
F100.0
sI2
F79.99999969534264
sI6
F-79.9347013177164
sI7
F79.99999998140825
ssS'0BAB000BA'
p387
(dp388
I1
F-99.8963975488338
sI5
F80.0
sI6
F100.0
sI7
F-84.9149345836682
ssS'0ABBA0B0A'
p389
(dp390
I8
F99.99999999999923
sI1
F100.0
sI6
F-98.87598003612611
ssS'A00ABBBA0'
p391
(dp392
I9
F-32.79999999908618
sI2
F-50.768145998671315
sI3
F54.94288402961487
ssS'BABBB00AA'
p393
(dp394
I6
F-100.0
sI7
F100.0
ssS'AB0BAB0AB'
p395
(dp396
I3
F-5.0
sI7
F-100.0
ssS'BA0BA0ABB'
p397
(dp398
I3
F100.0
sI6
F-5.0
ssS'ABA00BBA0'
p399
(dp400
I9
F-3.999999924048977
sI4
F-4.0
sI5
F-3.957103220097867
ssS'A000ABBB0'
p401
(dp402
I9
F100.0
sI2
F-60.86217485000775
sI3
F68.56785583321367
sI4
F-84.13624290434824
ssS'A0BB0AAB0'
p403
(dp404
I9
F-3.9999971647780987
sI2
F-4.0
sI5
F-3.999999131453266
ssS'0A0A0B00B'
p405
(dp406
I8
F-98.87311161460187
sI1
F-62.077114842946315
sI3
F-32.770645466253995
sI5
F-98.62438893080284
sI7
F-87.2112097492897
ssS'00A0000BB'
p407
(dp408
I1
F-99.99999945761132
sI2
F-97.65068318914706
sI4
F-99.88427743057093
sI5
F-99.99901007470677
sI6
F-99.83470751964045
sI7
F-79.0927785675215
ssS'AA000BB0B'
p409
(dp410
I8
F76.58981878848189
sI3
F100.0
sI4
F-96.29107581987988
sI5
F26.000087054443057
ssS'ABB0B0A00'
p411
(dp412
I8
F79.99999999999999
sI9
F26.09185637127031
sI4
F100.0
sI6
F-99.45505490660587
ssS'BABAAB000'
p413
(dp414
I8
F100.0
sI9
F-3.855927390806772
sI7
F-93.90164207568769
ssS'0AABB0B00'
p415
(dp416
I8
F-99.97220510790005
sI1
F100.0
sI6
F30.431612091365096
sI9
F-99.99975484513831
ssS'A000000B0'
p417
(dp418
I2
F-38.21187196209799
sI3
F-3.59864094285485
sI4
F-23.266224424978233
sI5
F63.25146764518364
sI6
F1.9107455383497074
sI7
F-13.394751158588576
sI9
F8.035447673045617
ssS'A0AB000BB'
p419
(dp420
I2
F100.0
sI5
F-99.99916033786896
sI6
F-95.79134823217638
sI7
F79.9999982443799
ssS'ABAA0BB00'
p421
(dp422
I8
F-4.0
sI9
F54.800104162436
sI5
F-3.9999999999999996
ssS'B00A0B0A0'
p423
(dp424
I9
F19.308054539751737
sI2
F-56.29291444897953
sI3
F-6.857687064308321
sI5
F-55.03402924318613
sI7
F-79.999980615122
ssS'BABA00B0A'
p425
(dp426
I8
F-61.17933123047139
sI5
F80.0
sI6
F-99.88058958367637
ssS'0B0AA0B0B'
p427
(dp428
I8
F1.333503932603925
sI1
F-84.62632437773038
sI3
F-98.67321995116603
sI6
F100.0
ssS'BBAA0ABB0'
p429
(dp430
I9
F100.0
sI5
F100.0
ssS'B00BAB0AA'
p431
(dp432
I2
F100.0
sI3
F-85.1568918272798
sI7
F100.0
ssS'00B000A00'
p433
(dp434
I1
F-26.41390043726897
sI2
F-23.05854878109774
sI4
F-55.819394951726444
sI5
F18.77158941809111
sI6
F-38.24780627941241
sI8
F-44.650412213541344
sI9
F62.99788613506471
ssS'B0BA0B0AA'
p435
(dp436
I2
F79.99999999998847
sI5
F-88.23409292097443
sI7
F100.0
ssS'ABABAABB0'
p437
(dp438
I9
F100.0
ssS'00A0B0B0A'
p439
(dp440
I8
F-18.966846070922422
sI1
F78.50753107821855
sI2
F79.9992651679905
sI4
F-3.1651121796100177
sI6
F100.0
ssS'AABBB00A0'
p441
(dp442
I9
F-99.9999999996862
sI6
F-93.95198928593855
sI7
F-93.95198927810691
ssS'0AB00AB00'
p443
(dp444
I8
F-98.67030598805238
sI1
F-99.96950241896951
sI4
F-94.90336871131781
sI5
F65.43779367464289
sI9
F-98.43239493229342
ssS'000BBA000'
p445
(dp446
I1
F-61.4235646226346
sI2
F-79.55962814096891
sI3
F-16.327801367485183
sI7
F-16.20592336438586
sI8
F-77.44170083134753
sI9
F-2.5792146083668364
ssS'0BBA0000A'
p447
(dp448
I8
F-80.84808942467703
sI1
F79.99998214319231
sI5
F-99.1842395563375
sI6
F-95.69112450403783
sI7
F-99.65693591480293
ssS'BAB000A0B'
p449
(dp450
I8
F-99.99993303404057
sI4
F-99.9999997991153
sI5
F-79.83995319725757
sI6
F-99.99999903412441
ssS'00A00B0B0'
p451
(dp452
I1
F-64.61845660042516
sI2
F-33.726385323638965
sI4
F-64.0728777207579
sI5
F-4.916485047663729
sI7
F-78.12584356519119
sI9
F-79.23831553926921
ssS'AABB00BAB'
p453
(dp454
I5
F100.0
sI6
F-100.0
ssS'B0AAB0BA0'
p455
(dp456
I9
F-3.9998552067647926
sI2
F-99.995591007289
sI6
F-99.9999780991736
ssS'BAAB00000'
p457
(dp458
I8
F-99.98972703402555
sI9
F-99.99993241004013
sI5
F-87.63917679477962
sI6
F-88.62597997478585
sI7
F36.381776460687746
ssS'B000BAAB0'
p459
(dp460
I9
F-99.9897739115302
sI2
F-99.98490649041065
sI3
F-99.99999995117085
sI4
F-99.99999776237743
ssS'00BB0A000'
p461
(dp462
I1
F-3.2340283348829857
sI2
F-79.56475564304853
sI5
F-63.87199972408013
sI7
F-27.151632492721088
sI8
F-79.34810274988189
sI9
F-79.3711750146362
ssS'B0B0A00A0'
p463
(dp464
I9
F-62.19141443944571
sI2
F100.0
sI4
F-99.96139864948091
sI6
F-99.99726805503518
sI7
F-88.65727043991966
ssS'AABBAB000'
p465
(dp466
I8
F100.0
sI9
F100.0
sI7
F-88.65726985188648
ssS'B0A000A0B'
p467
(dp468
I8
F-47.35184546553275
sI2
F-84.32858485850304
sI4
F-60.761922524380196
sI5
F100.0
sI6
F-83.8013610650377
ssS'ABABABBA0'
p469
(dp470
I9
F100.0
ssS'BABBA00BA'
p471
(dp472
I6
F-100.0
sI7
F-5.0
ssS'0000BAA0B'
p473
(dp474
I8
F-76.95342385822477
sI1
F29.77470872605827
sI2
F-99.72063586290481
sI3
F-99.99906539987441
sI4
F-99.99991249226842
ssS'BAB0AB000'
p475
(dp476
I8
F100.0
sI9
F-3.999959376027966
sI4
F-85.2579967835014
sI7
F-99.99166521417668
ssS'0BA0B00A0'
p477
(dp478
I1
F-3.192768733398522
sI7
F-54.670649243146215
sI4
F-55.34950292048167
sI6
F-34.22426442808083
sI9
F76.87777703239593
ssS'B0AB0AA0B'
p479
(dp480
I8
F-87.54409214696358
sI2
F-87.603348951811
sI5
F100.0
ssS'BABABA0B0'
p481
(dp482
I9
F-100.0
sI7
F-100.0
ssS'AABBABAB0'
p483
(dp484
I9
F100.0
ssS'00A00BB00'
p485
(dp486
I1
F-42.50919527829247
sI2
F-64.53640101887686
sI4
F-10.9494735847334
sI5
F-26.195575843432117
sI8
F-79.98747520456418
sI9
F-79.93891672016545
ssS'0B0BBAA0A'
p487
(dp488
I8
F99.99999999999993
sI1
F-85.12950539048836
sI3
F100.0
ssS'AABBA00BB'
p489
(dp490
I6
F-100.0
sI7
F-100.0
ssS'BAB0AB00A'
p491
(dp492
I8
F100.0
sI4
F60.13486520061525
sI7
F-3.99999999999804
ssS'0B0B0A000'
p493
(dp494
I1
F-57.26582107568898
sI3
F-63.961230288530544
sI5
F-79.99914154076178
sI7
F-70.9428516063546
sI8
F-63.441228579030195
sI9
F-60.39661790495046
ssS'ABBAA000B'
p495
(dp496
I8
F-99.99977677521413
sI6
F100.0
sI7
F100.0
ssS'B0000AB0A'
p497
(dp498
I8
F-98.6395719885909
sI2
F27.183044838994377
sI3
F100.0
sI4
F79.99999851903155
sI5
F-99.99096666285855
ssS'BAAB0B0AB'
p499
(dp500
I5
F100.0
sI7
F-100.0
ssS'0B00A0B0A'
p501
(dp502
I8
F-78.66686357515782
sI1
F100.0
sI3
F79.99999782239694
sI4
F79.96698107901014
sI6
F79.99999999991219
ssS'BAABBA0B0'
p503
(dp504
I9
F100.0
sI7
F-100.0
ssS'BAAB0000B'
p505
(dp506
I8
F-85.16605589122275
sI5
F-99.99098654023219
sI6
F-99.96566923526352
sI7
F-98.94335319106226
ssS'BB0B00A0A'
p507
(dp508
I8
F100.0
sI3
F80.0
sI5
F-98.57038892788982
sI6
F-98.55276881444286
ssS'0AABAB0B0'
p509
(dp510
I1
F100.0
sI7
F100.0
sI9
F79.99999999999999
ssS'ABABB000A'
p511
(dp512
I8
F-96.49787912530817
sI6
F100.0
sI7
F-100.0
ssS'ABB0A0AB0'
p513
(dp514
I9
F100.0
sI4
F100.0
sI6
F80.0
ssS'0ABAB000B'
p515
(dp516
I8
F-99.99999999999997
sI1
F-99.66626325757572
sI6
F-99.99684788870091
sI7
F-99.99655271924937
ssS'0BBA0BA0A'
p517
(dp518
I8
F99.99999999999923
sI1
F100.0
sI5
F-88.63812999999999
ssS'BABBABA00'
p519
(dp520
I8
F100.0
sI9
F-5.0
ssS'0BABA0B00'
p521
(dp522
I8
F-99.99998928614943
sI1
F-57.19965260948509
sI6
F-82.59799397345905
sI9
F-99.90565991544838
ssS'AB0BAB0A0'
p523
(dp524
I9
F100.0
sI3
F80.0
sI7
F79.99999999070191
ssS'AAB0B0ABB'
p525
(dp526
I4
F100.0
sI6
F-5.0
ssS'BAB000BA0'
p527
(dp528
I9
F-99.99991294995314
sI4
F-60.86247231292866
sI5
F100.0
sI6
F-99.99999998056673
ssS'BA0000AB0'
p529
(dp530
I9
F-3.1999994570657626
sI3
F-13.314422827543787
sI4
F-19.328082140988407
sI5
F-1.611655336408944
sI6
F-61.28441232505551
ssS'AAB0BB0A0'
p531
(dp532
I9
F-100.0
sI4
F-100.0
sI7
F-100.0
ssS'0BA0BA000'
p533
(dp534
I8
F-3.186013401636452
sI1
F-99.99993206615164
sI7
F-99.95040792488471
sI4
F-99.99999999998931
sI9
F100.0
ssS'BAAB0A00B'
p535
(dp536
I8
F-99.99999999990585
sI5
F-99.99999995105127
sI7
F-99.99999993520863
ssS'BABBAAA0B'
p537
(dp538
I8
F100.0
ssS'000AABBB0'
p539
(dp540
I1
F-83.90092441384138
sI2
F-92.92700214405912
sI3
F-77.83604958610039
sI9
F-3.999999999384931
ssS'00B0BA00A'
p541
(dp542
I8
F-99.9999998372834
sI1
F-99.999997732471
sI2
F-99.83400943739642
sI4
F-99.99997496417048
sI7
F14.272471267649308
ssS'BA0ABBB0A'
p543
(dp544
I8
F-100.0
sI3
F-5.0
ssS'ABBBAABA0'
p545
(dp546
I9
F100.0
ssS'ABAA0BB0B'
p547
(dp548
I8
F-5.0
sI5
F-100.0
ssS'0BAA0BBA0'
p549
(dp550
I1
F-4.0
sI5
F-4.0
sI9
F-4.0
ssS'ABABA0BB0'
p551
(dp552
I9
F100.0
sI6
F-100.0
ssS'0A0ABBB00'
p553
(dp554
I8
F-99.98848946131122
sI1
F-99.99440523665433
sI3
F-56.72605385272711
sI9
F-99.76721525822047
ssS'ABA0BAB00'
p555
(dp556
I8
F18.936208764502723
sI9
F100.0
sI4
F-93.78826067654909
ssS'AB00B0000'
p557
(dp558
I3
F-99.9998807784406
sI4
F-99.99729446523905
sI6
F-99.99908142564838
sI7
F-88.35260917135679
sI8
F-3.2163177422632976
sI9
F-78.95861822126109
ssS'ABBB0A0A0'
p559
(dp560
I9
F80.0
sI5
F-2.3526714643646685
sI7
F1.351583547653913
ssS'AB0A0000B'
p561
(dp562
I8
F0.1588643272188417
sI3
F13.096536639504983
sI5
F72.51042472083878
sI6
F78.38041440153424
sI7
F100.0
ssS'00A00BBAB'
p563
(dp564
I1
F-3.9999999999833884
sI2
F-32.00005952142362
sI4
F-19.971634840000007
sI5
F-1.8932547999995109
ssS'ABBABA0AB'
p565
(dp566
I7
F100.0
ssS'BA00BABBA'
p567
(dp568
I3
F100.0
sI4
F-100.0
ssS'AA00B0BB0'
p569
(dp570
I9
F-99.9999945842197
sI3
F100.0
sI4
F-99.99977663154908
sI6
F-99.99925598258903
ssS'B000B00A0'
p571
(dp572
I2
F-99.62171697337652
sI3
F-85.99993032098908
sI4
F-99.96238954794137
sI6
F-99.82030318510105
sI7
F-99.99751992389524
sI9
F-45.911684531231316
ssS'B0A0BB00A'
p573
(dp574
I8
F-98.88753994742424
sI2
F-99.99554429203407
sI4
F-4.042274015363206
sI7
F-95.789253082
ssS'0BAB0000A'
p575
(dp576
I8
F79.99681370603031
sI1
F79.9999337689608
sI5
F79.72919911509896
sI6
F100.0
sI7
F69.97603095526418
ssS'BB000A000'
p577
(dp578
I3
F53.766208176159566
sI4
F-99.6938096047049
sI5
F-99.99541161371411
sI7
F-99.99826032331511
sI8
F-81.50316842071443
sI9
F-99.98816485114807
ssS'BB00BAA0A'
p579
(dp580
I8
F99.99999999990585
sI3
F100.0
sI4
F-99.99999999999999
ssS'BBABAB0A0'
p581
(dp582
I9
F-100.0
sI7
F100.0
ssS'BAB0B00A0'
p583
(dp584
I9
F-99.99999978846745
sI4
F-100.0
sI6
F-99.99999999995606
sI7
F-99.99999945761103
ssS'BBAA0B0AB'
p585
(dp586
I5
F-5.0
sI7
F-100.0
ssS'BB00ABAA0'
p587
(dp588
I9
F99.99994685589999
sI3
F100.0
sI4
F-88.65916689262033
ssS'000AB000B'
p589
(dp590
I1
F-44.01082839556783
sI2
F-85.81310674520593
sI3
F-99.99999999999997
sI6
F-99.99997519941583
sI7
F-99.97243777143436
sI8
F-99.99823306076868
ssS'BBA00BA00'
p591
(dp592
I8
F79.99999999999993
sI9
F79.99713415519716
sI4
F-79.97308465335647
sI5
F100.0
ssS'0A0BABAB0'
p593
(dp594
I1
F79.99999999999939
sI3
F100.0
sI9
F79.99999999999797
ssS'0B0ABBA0A'
p595
(dp596
I8
F99.99999987085984
sI1
F100.0
sI3
F-88.34298603165038
ssS'AB0BBAAAB'
p597
(dp598
I3
F-5.0
ssS'BABABBA00'
p599
(dp600
I8
F-100.0
sI9
F-5.0
ssS'0ABABA0B0'
p601
(dp602
I1
F-58.79770145443922
sI7
F-3.957030614728319
sI9
F-99.93631427000396
ssS'ABAB000BA'
p603
(dp604
I5
F100.0
sI6
F99.99999999999746
sI7
F-47.12351193384799
ssS'0000B0000'
p605
(dp606
I1
F-58.064353565273834
sI2
F-73.92164584331361
sI3
F-44.432918239924305
sI4
F-23.988721546075762
sI6
F-56.82520947559951
sI7
F8.720454094205344
sI8
F-61.94633325900086
sI9
F-61.137375275837776
ssS'BABBA000A'
p607
(dp608
I8
F100.0
sI6
F-30.9854452182822
sI7
F1.2920028146392077
ssS'ABBAAB0B0'
p609
(dp610
I9
F100.0
sI7
F100.0
ssS'B000A0B00'
p611
(dp612
I2
F-98.97939999951066
sI3
F-79.55720866855496
sI4
F39.22714337431454
sI6
F-98.97937990713686
sI8
F-99.90566361838377
sI9
F-75.29367852161482
ssS'BAB0ABAB0'
p613
(dp614
I9
F-5.0
sI4
F-100.0
ssS'B00AA00B0'
p615
(dp616
I9
F21.477467141218014
sI2
F9.975519935328423
sI3
F79.98942289689893
sI6
F100.0
sI7
F79.52812928768415
ssS'AA00ABB0B'
p617
(dp618
I8
F99.99999956953279
sI3
F100.0
sI4
F-99.99999956953279
ssS'000BA0A0B'
p619
(dp620
I8
F79.99999969450005
sI1
F67.27205388208033
sI2
F79.7297856900419
sI3
F100.0
sI6
F-3.0857595635861466
ssS'BB0000BAA'
p621
(dp622
I3
F-99.78063538175279
sI4
F-99.4406335419093
sI5
F-99.87628632269373
sI6
F-99.6905939049875
ssS'0A000B000'
p623
(dp624
I1
F-4.206351823549177
sI3
F-21.319973512689607
sI4
F-19.822076490006083
sI5
F62.31015033932231
sI7
F-57.85668463903653
sI8
F-64.72669004018718
sI9
F14.577659927709275
ssS'0BBB00AA0'
p625
(dp626
I1
F-70.90505826345772
sI5
F-98.59637813479715
sI6
F-29.112543627896365
sI9
F100.0
ssS'B0A00A00B'
p627
(dp628
I8
F-99.99973562461635
sI2
F-99.99991733125344
sI4
F-99.69359653359164
sI5
F79.91829247934213
sI7
F-99.97244349898845
ssS'000B0000A'
p629
(dp630
I1
F-26.088751996538647
sI2
F-52.399411120280405
sI3
F24.733947289998767
sI5
F75.10477258147907
sI6
F2.39379379566806
sI7
F59.30336076558623
sI8
F-26.33737370852579
ssS'00A0B0AB0'
p631
(dp632
I1
F-99.99916893244229
sI2
F16.739183914201615
sI4
F-99.99993303842982
sI6
F-99.90814599560665
sI9
F-99.79353840444948
ssS'BAB0ABABA'
p633
(dp634
I4
F-5.0
ssS'BABBABA0A'
p635
(dp636
I8
F100.0
ssS'BB00A000A'
p637
(dp638
I8
F-99.99751808510382
sI3
F79.7277973601622
sI4
F-99.66626199197393
sI6
F-96.5954522549397
sI7
F-58.49175303710521
ssS'B0B0AAB0A'
p639
(dp640
I8
F-100.0
sI2
F-58.491813806229516
sI4
F100.0
ssS'0AA0BABB0'
p641
(dp642
I1
F100.0
sI4
F-99.99923336457763
sI9
F99.99999999999999
ssS'00A00ABB0'
p643
(dp644
I1
F68.65999464294565
sI2
F68.6599061399613
sI4
F30.78295218742157
sI5
F-47.32926156522349
sI9
F100.0
ssS'AABB0AB00'
p645
(dp646
I8
F-99.68480911911321
sI9
F-60.834665028032035
sI5
F80.0
ssS'AABBB000A'
p647
(dp648
I8
F-99.99999999999999
sI6
F-99.99999991250914
sI7
F-99.45123529495221
ssS'BAB00AB0A'
p649
(dp650
I8
F-100.0
sI4
F-87.63090993478
sI5
F-99.99999999999997
ssS'BBAA0A00B'
p651
(dp652
I8
F-88.64916560149699
sI5
F100.0
sI7
F-99.59872140566311
ssS'BB0ABAB0A'
p653
(dp654
I8
F-100.0
sI3
F100.0
ssS'BABABBA0A'
p655
(dp656
I8
F100.0
ssS'BAA0BB0A0'
p657
(dp658
I9
F-99.99996078352477
sI4
F-99.39199453396483
sI7
F-99.99999999997175
ssS'ABAB000B0'
p659
(dp660
I9
F-99.99999999529078
sI5
F69.9119903312
sI6
F-99.98904806169229
sI7
F-99.99833744114426
ssS'BABBA0000'
p661
(dp662
I8
F100.0
sI9
F-99.99543570998092
sI6
F-96.29107598258932
sI7
F-3.9999999238810626
ssS'0ABAAB0B0'
p663
(dp664
I1
F-96.59545115647043
sI7
F-98.18119092119314
sI9
F54.80003125562523
ssS'0ABBB0AAB'
p665
(dp666
I1
F-100.0
sI6
F-100.0
ssS'ABAA0BBAB'
p667
(dp668
I5
F-5.0
ssS'BAB0B00AA'
p669
(dp670
I4
F-99.96160797386894
sI6
F-99.65475095220219
sI7
F100.0
ssS'BABAAB0B0'
p671
(dp672
I9
F-5.0
sI7
F-100.0
ssS'B0A00B0AB'
p673
(dp674
I2
F-99.99075952044134
sI4
F-97.457003493438
sI5
F21.199968751264088
sI7
F-99.98819021504322
ssS'BBAA0B0A0'
p675
(dp676
I9
F1.2959969588482192
sI5
F1.4392339606209532
sI7
F80.0
ssS'AB00000BA'
p677
(dp678
I3
F42.17173907105355
sI4
F38.76982361622497
sI5
F100.0
sI6
F68.31830911708008
sI7
F68.63162482085018
ssS'BB00ABAAB'
p679
(dp680
I3
F100.0
sI4
F-100.0
ssS'ABABAAB0B'
p681
(dp682
I8
F-5.0
ssS'BAAB0B000'
p683
(dp684
I8
F-99.9999999840375
sI9
F-99.99999998192027
sI5
F-99.99999995075277
sI7
F-99.62197991153019
ssS'0BA000BAB'
p685
(dp686
I1
F-4.0
sI4
F-4.038791281803274
sI5
F-10.227898933798361
sI6
F-26.79997149832836
ssS'00AAB00B0'
p687
(dp688
I1
F-62.19670710146798
sI2
F30.567711917352316
sI7
F-98.9709099329689
sI6
F-98.97865596452037
sI9
F-99.99172656667702
ssS'0000B0B0A'
p689
(dp690
I1
F-99.99230866727687
sI2
F-89.55253192546806
sI3
F-29.036425227152332
sI4
F-99.9999993299907
sI6
F-99.9724438
sI8
F-99.9628993284835
ssS'0BBABAA00'
p691
(dp692
I8
F-99.99743230044672
sI1
F100.0
sI9
F-99.99999998837738
ssS'AB00BB00A'
p693
(dp694
I8
F-99.85901899942
sI3
F-99.99999999985201
sI4
F-99.9999997991153
sI7
F-99.999999999881
ssS'0AB0BAAB0'
p695
(dp696
I1
F-3.9999895285448783
sI4
F54.80385787029011
sI9
F-4.0
ssS'0000B0A0B'
p697
(dp698
I1
F55.0012050437132
sI2
F-95.75648975837109
sI3
F-85.99693795096233
sI4
F-98.97617576139523
sI6
F-99.9999643270589
sI8
F-95.40039918226067
ssS'ABA00B0B0'
p699
(dp700
I9
F-99.9641769382794
sI4
F-99.9888649838565
sI5
F79.0852353755513
sI7
F-99.93767976760647
ssS'ABA0BBA0B'
p701
(dp702
I8
F-100.0
sI4
F100.0
ssS'AABB000AB'
p703
(dp704
I5
F100.0
sI6
F15.414508686163998
sI7
F-97.41385113443297
ssS'A0B000BAB'
p705
(dp706
I2
F-99.99999999959364
sI4
F-99.99999999822639
sI5
F-99.99999999764798
sI6
F-99.99999999993098
ssS'AAB0B0AB0'
p707
(dp708
I9
F-3.8532581319833525
sI4
F100.0
sI6
F55.32065914313923
ssS'BBAAA0BB0'
p709
(dp710
I9
F-5.0
sI6
F100.0
ssS'00BA0000B'
p711
(dp712
I1
F-99.9999999999975
sI2
F-99.965832038676
sI5
F-96.59724979202349
sI6
F-79.72782023396616
sI7
F-99.9996691526069
sI8
F-99.87886755632658
ssS'ABA0A00BB'
p713
(dp714
I4
F-99.99999924167538
sI6
F-87.61184182309475
sI7
F100.0
ssS'0BBAB0A0A'
p715
(dp716
I8
F99.99999999999153
sI1
F100.0
sI6
F-99.99999999999993
ssS'ABBB0ABAA'
p717
(dp718
I5
F100.0
ssS'B0A0BABA0'
p719
(dp720
I9
F100.0
sI2
F-100.0
sI4
F-61.178634071520875
ssS'BBA0000BA'
p721
(dp722
I4
F-79.73802158361674
sI5
F21.057115999944607
sI6
F100.0
sI7
F-85.24950975261623
ssS'ABBA0AB0B'
p723
(dp724
I8
F-100.0
sI5
F100.0
ssS'000B00BA0'
p725
(dp726
I1
F-31.790627053066853
sI2
F-99.9990812851369
sI3
F-93.90263588664362
sI5
F-88.31364301501802
sI6
F-74.51468791121617
sI9
F-99.99999928227716
ssS'ABAABBB00'
p727
(dp728
I8
F-5.0
sI9
F-100.0
ssS'0B00B0AAB'
p729
(dp730
I1
F13.784038814005527
sI3
F-99.88353596794781
sI4
F-98.97917663204855
sI6
F-99.9998806672391
ssS'B0A0B0A00'
p731
(dp732
I8
F-99.99999916009202
sI9
F76.0069647882264
sI2
F-76.58740241867837
sI4
F-99.99983992046286
sI6
F-99.99677592458657
ssS'0B0A0BAB0'
p733
(dp734
I1
F100.0
sI3
F-50.46005170680968
sI5
F79.99999463916838
sI9
F-45.22156441305145
ssS'BA00BAB00'
p735
(dp736
I8
F-100.0
sI9
F-99.99971839240928
sI3
F-88.65999397305912
sI4
F-99.99961696867355
ssS'BAABB0000'
p737
(dp738
I8
F-100.0
sI9
F-99.99997207690821
sI6
F-99.99999098573751
sI7
F-99.99997426682229
ssS'0A0B0B000'
p739
(dp740
I1
F-99.94456164666212
sI3
F-91.58423529138061
sI5
F52.17103718295542
sI7
F-99.72144398500646
sI8
F-99.98819179970918
sI9
F-81.05304878561317
ssS'00BBA0AB0'
p741
(dp742
I1
F-4.042138053011048
sI2
F-8.791813095256082
sI6
F-57.20000076336185
sI9
F-9.25488268781738
ssS'0A00BBAAB'
p743
(dp744
I1
F-100.0
sI3
F-100.0
sI4
F-100.0
ssS'A00B0B0A0'
p745
(dp746
I9
F37.62378629926987
sI2
F-46.03686126849081
sI3
F-48.37058071614999
sI5
F79.99925742880015
sI7
F-61.39363395145597
ssS'AB000BBA0'
p747
(dp748
I9
F-43.37598214323084
sI3
F-61.99151874527254
sI4
F-78.563505757796
sI5
F20.99556670986984
ssS'BABBBAA00'
p749
(dp750
I8
F-100.0
sI9
F-5.0
ssS'B0AABB000'
p751
(dp752
I8
F-99.95101053036537
sI9
F-4.000342436413514
sI2
F-92.13759573481609
sI7
F-95.799724438
ssS'BAB00AAB0'
p753
(dp754
I9
F-4.0
sI4
F-3.999999999815463
sI5
F-3.999999999943149
ssS'0000AAB0B'
p755
(dp756
I8
F62.441474056310895
sI1
F-29.276474734418755
sI2
F-99.99677590978925
sI3
F-99.1835624358341
sI4
F100.0
ssS'B00AABBAB'
p757
(dp758
I2
F100.0
sI3
F-5.0
ssS'000ABB0A0'
p759
(dp760
I7
F-31.979938774148167
sI1
F-1.1722759916315812
sI2
F-70.62950795965594
sI3
F2.2587575137216103
sI9
F-3.4971272350841405
ssS'AABBAABB0'
p761
(dp762
I9
F100.0
ssS'AB0000AB0'
p763
(dp764
I9
F-99.86878200690902
sI3
F-98.95239264108439
sI4
F100.0
sI5
F80.0
sI6
F-58.51562793080603
ssS'0AB0AB000'
p765
(dp766
I8
F100.0
sI1
F-99.9080587676481
sI7
F-99.99925597712065
sI4
F-90.93805489547509
sI9
F79.9998505917328
ssS'0B0AAB0AB'
p767
(dp768
I1
F-99.99999999978908
sI3
F-3.999990625196239
sI7
F-96.58898912115922
ssS'A0BB0B00A'
p769
(dp770
I8
F-96.59549305382221
sI2
F-96.59763496830904
sI5
F100.0
sI7
F-99.89951394516227
ssS'BAB00AABB'
p771
(dp772
I4
F-100.0
sI5
F-5.0
ssS'AB00A00B0'
p773
(dp774
I9
F100.0
sI3
F48.291392180356894
sI4
F79.99980171635049
sI6
F79.99999999998946
sI7
F80.0
ssS'BAAABBB00'
p775
(dp776
I8
F-100.0
sI9
F-5.0
ssS'BA00A0BBA'
p777
(dp778
I3
F-73.79147340022125
sI4
F-3.9999999172314866
sI6
F-88.65999380499551
ssS'00AB0B00A'
p779
(dp780
I8
F-99.99997989349711
sI1
F-99.88058925321796
sI2
F-99.69133993953417
sI5
F-33.17955785382934
sI7
F-95.45755447294799
ssS'BAABAB0B0'
p781
(dp782
I9
F-100.0
sI7
F100.0
ssS'000AAB0BB'
p783
(dp784
I1
F-99.99999999998933
sI2
F-99.99999999999999
sI3
F-88.65999995118501
sI7
F-99.99999940879302
ssS'ABA0BBB0A'
p785
(dp786
I8
F-100.0
sI4
F-100.0
ssS'BA00BAB0A'
p787
(dp788
I8
F-99.99999999999746
sI3
F100.0
sI4
F-99.86984107227389
ssS'A0BAABB00'
p789
(dp790
I8
F-99.99993303788344
sI9
F100.0
sI2
F-99.97237075867406
ssS'00BAA00B0'
p791
(dp792
I1
F79.99984241787719
sI2
F-53.30763974661487
sI7
F-25.193083633305818
sI6
F100.0
sI9
F61.66315409191445
ssS'BAB00BA00'
p793
(dp794
I8
F-62.19997196298847
sI9
F1.2920000000000407
sI4
F-99.93482180158072
sI5
F-97.63257612992577
ssS'ABA0000BB'
p795
(dp796
I4
F-99.99999933038434
sI5
F-99.9909891225968
sI6
F-99.99999999980962
sI7
F-99.99999999960451
ssS'ABBA0AB00'
p797
(dp798
I8
F-95.5497906559
sI9
F-57.75556243915865
sI5
F100.0
ssS'A00BAAB0B'
p799
(dp800
I8
F-3.999999999999988
sI2
F-99.96996368879138
sI3
F-26.2076789489711
ssS'BBAB00A0A'
p801
(dp802
I8
F99.99999956953279
sI5
F100.0
sI6
F99.99999998837738
ssS'0000B0A00'
p803
(dp804
I1
F50.87178780672637
sI2
F-33.015138481866266
sI3
F-41.928158082514436
sI4
F-70.05925259889133
sI6
F-71.27167062531866
sI8
F-57.05812434007814
sI9
F-49.568625972157776
ssS'AAB0B0A0B'
p805
(dp806
I8
F-99.83627147717617
sI4
F100.0
sI6
F-1.7920786395998602
ssS'BBA0A0B0A'
p807
(dp808
I8
F-99.99547097493478
sI4
F-3.8142477344995083
sI6
F100.0
ssS'ABA0BBA00'
p809
(dp810
I8
F-99.99751977301136
sI9
F-100.0
sI4
F100.0
ssS'B000BAABA'
p811
(dp812
I2
F55.276311504571304
sI3
F100.0
sI4
F-79.82084753681133
ssS'0BABA0000'
p813
(dp814
I8
F16.521771623139927
sI1
F77.72997979419168
sI7
F100.0
sI6
F79.99999999999999
sI9
F79.98677435682482
ssS'A00ABB0AB'
p815
(dp816
I2
F-88.65172690192747
sI3
F80.0
sI7
F100.0
ssS'A00BAB00B'
p817
(dp818
I8
F-99.99612662979472
sI2
F26.09185454238869
sI3
F79.98595183068318
sI7
F-62.083375382211315
ssS'BBAABB0A0'
p819
(dp820
I9
F-5.0
sI7
F-100.0
ssS'A00BB0BA0'
p821
(dp822
I9
F-100.0
sI2
F-100.0
sI3
F-58.7704437986818
sI6
F-79.28097264613626
ssS'A00A00B0B'
p823
(dp824
I8
F-73.20127186063354
sI2
F-85.98902987540971
sI3
F-99.99999999998613
sI5
F-99.98730271640707
sI6
F-99.99999995109675
ssS'A00ABBB0A'
p825
(dp826
I8
F-99.82199339793783
sI2
F-50.859933038429745
sI3
F13.683212408124987
ssS'B0ABB00A0'
p827
(dp828
I9
F-99.99999395710107
sI2
F-100.0
sI6
F-99.90715244540313
sI7
F-96.5970119820524
ssS'AB0BA00AB'
p829
(dp830
I3
F-3.8442561108789004
sI6
F-4.0
sI7
F-3.9988426394154795
ssS'B0A0B0ABA'
p831
(dp832
I2
F-3.999652791879416
sI4
F-98.18547765625966
sI6
F100.0
ssS'BAAB00AB0'
p833
(dp834
I9
F79.99999999999999
sI5
F100.0
sI6
F80.0
ssS'A0B00AB00'
p835
(dp836
I8
F-99.99909428682246
sI9
F-99.99976840016694
sI2
F-99.98055925065825
sI4
F-96.54830708595351
sI5
F76.56298483924515
ssS'AABB0ABB0'
p837
(dp838
I9
F-100.0
sI5
F-100.0
ssS'0B0ABB0A0'
p839
(dp840
I7
F79.99779000243774
sI1
F1.3390950783162818
sI3
F-4.563686452556491
sI9
F-4.430888751190761
ssS'BABBAAAB0'
p841
(dp842
I9
F-5.0
ssS'000000AB0'
p843
(dp844
I1
F63.70041725085345
sI2
F-5.529619198142573
sI3
F-4.6732709907394625
sI4
F-0.23135727882914336
sI5
F38.6590141504598
sI6
F-7.71493506529313
sI9
F-1.5661792515535193
ssS'BB00AB0AA'
p845
(dp846
I3
F-3.95677821726076
sI4
F-73.79199999997925
sI7
F100.0
ssS'ABBAB00A0'
p847
(dp848
I9
F-96.17159094778873
sI6
F-96.58700779094234
sI7
F100.0
ssS'BBA000A00'
p849
(dp850
I8
F70.67622126518235
sI9
F79.99977955031699
sI4
F-78.55447982454457
sI5
F100.0
sI6
F69.9199998385923
ssS'AB0BBA0A0'
p851
(dp852
I9
F80.0
sI3
F-3.9871091084774686
sI7
F-3.987140186829924
ssS'0A0BB00AB'
p853
(dp854
I1
F-99.93811362881422
sI3
F-99.99974870853941
sI6
F-99.99960634542435
sI7
F-99.99693529832818
ssS'BA0B00A00'
p855
(dp856
I8
F80.0
sI9
F59.98323925868563
sI3
F-77.82785349512518
sI5
F79.5282483456024
sI6
F61.278934712501844
ssS'BBA0B0A0A'
p857
(dp858
I8
F100.0
sI4
F-99.99977674101876
sI6
F100.0
ssS'BAAA0B0BB'
p859
(dp860
I5
F-100.0
sI7
F-100.0
ssS'BABA0BBAA'
p861
(dp862
I5
F100.0
ssS'ABA0BABAB'
p863
(dp864
I4
F-5.0
ssS'AA0B0BB00'
p865
(dp866
I8
F-46.31452834128359
sI9
F79.96394749227896
sI3
F100.0
sI5
F80.0
ssS'ABAB00BBA'
p867
(dp868
I5
F100.0
sI6
F100.0
ssS'BAABB0AB0'
p869
(dp870
I9
F-100.0
sI6
F-100.0
ssS'000AB00AB'
p871
(dp872
I1
F15.919434640345862
sI2
F-99.99998677323381
sI3
F-99.67163829852775
sI6
F-99.9997206145188
sI7
F-99.9917325974915
ssS'0BA00ABB0'
p873
(dp874
I1
F-99.60121578791525
sI4
F-88.3527657216328
sI5
F30.459483542833667
sI9
F100.0
ssS'B0B0A0BA0'
p875
(dp876
I9
F-99.99991552160465
sI2
F100.0
sI4
F-88.65925299170627
sI6
F26.000001856778212
ssS'AB0000A0B'
p877
(dp878
I8
F2.935020099514311
sI3
F75.59967209339567
sI4
F100.0
sI5
F62.53041362364112
sI6
F47.34263576304726
ssS'AB00BAB00'
p879
(dp880
I8
F-99.99864088602773
sI9
F-99.99729438032217
sI3
F-99.99908438681787
sI4
F-99.99880589632886
ssS'AABBB00AB'
p881
(dp882
I6
F-100.0
sI7
F-100.0
ssS'0BA00BAB0'
p883
(dp884
I1
F-46.002480062824375
sI4
F-32.1033710505303
sI5
F100.0
sI9
F-46.315958550810464
ssS'AB00BAB0A'
p885
(dp886
I8
F-99.96988956006399
sI3
F100.0
sI4
F-99.99999996125796
ssS'BBA000ABA'
p887
(dp888
I4
F-99.87704746629431
sI5
F100.0
sI6
F100.0
ssS'AA0BA0B0B'
p889
(dp890
I8
F100.0
sI3
F100.0
sI6
F29.708247016222685
ssS'BBABBA0A0'
p891
(dp892
I9
F100.0
sI7
F-100.0
ssS'B0B0ABA00'
p893
(dp894
I8
F-99.69381999999992
sI9
F-99.90814599861702
sI2
F-81.57739999999905
sI4
F-99.99999999985353
ssS'ABAB0AB00'
p895
(dp896
I8
F-3.940057110377354
sI9
F100.0
sI5
F15.859741082210547
ssS'ABBAB0000'
p897
(dp898
I8
F-98.5445597991886
sI9
F-98.66114546542704
sI6
F-88.65751370391234
sI7
F100.0
ssS'B0ABAB0A0'
p899
(dp900
I9
F-98.56984851912205
sI2
F100.0
sI7
F99.9999985651093
ssS'BAAABBAB0'
p901
(dp902
I9
F-5.0
ssS'BABA0BBA0'
p903
(dp904
I9
F-100.0
sI5
F100.0
ssS'ABABBAA0B'
p905
(dp906
I8
F-5.0
ssS'ABAB00B00'
p907
(dp908
I8
F-19.96380713721951
sI9
F-65.60085975347164
sI5
F-13.511319977270169
sI6
F-2.370675924856621
ssS'AA0B00BAB'
p909
(dp910
I3
F99.99999999999153
sI5
F100.0
sI6
F79.99999999070191
ssS'BB00B0A0A'
p911
(dp912
I8
F100.0
sI3
F63.925901167059685
sI4
F-99.9697396307868
sI6
F-99.99977673131956
ssS'B0AAB0B0A'
p913
(dp914
I8
F-3.953267226259211
sI2
F-3.8571057746442885
sI6
F100.0
ssS'00BBAAA0B'
p915
(dp916
I8
F-3.9999991562842645
sI1
F-4.0
sI2
F-3.9999999772196717
ssS'BAB0AAB00'
p917
(dp918
I8
F99.99999999895397
sI9
F-88.56739963193522
sI4
F100.0
ssS'ABAA00BB0'
p919
(dp920
I9
F-62.199993973448386
sI5
F-99.9999799071359
sI6
F-100.0
ssS'A0AB00B00'
p921
(dp922
I8
F64.04555045286203
sI9
F79.99947937687908
sI2
F100.0
sI5
F55.92944116465801
sI6
F79.99999999999991
ssS'BABBB0AA0'
p923
(dp924
I9
F100.0
sI6
F-100.0
ssS'ABBBA0AB0'
p925
(dp926
I9
F100.0
sI6
F-5.0
ssS'BB00AB0A0'
p927
(dp928
I9
F-99.99999993534006
sI3
F-57.183595868979296
sI4
F-99.83666828716476
sI7
F-99.99074582754344
ssS'00BAB000A'
p929
(dp930
I8
F-99.99150993476836
sI1
F-99.90814543855903
sI2
F-99.9999606057226
sI6
F-99.98149574343851
sI7
F76.9747302081536
ssS'0AB000ABB'
p931
(dp932
I1
F-99.99173284817107
sI4
F-95.337992511011
sI5
F-12.639996785356686
sI6
F-4.000002544539519
ssS'BB00AAB0A'
p933
(dp934
I8
F-99.9999985651093
sI3
F100.0
sI4
F99.99999999651321
ssS'B0BBAB0AA'
p935
(dp936
I2
F100.0
sI7
F100.0
ssS'B0AA0000B'
p937
(dp938
I8
F-96.86453336619869
sI2
F-99.38713233330219
sI5
F76.06642555669522
sI6
F-98.04211452511177
sI7
F-98.8489320264751
ssS'A0AB0000B'
p939
(dp940
I8
F34.189568122557304
sI2
F100.0
sI5
F79.99999976967953
sI6
F33.319706824472334
sI7
F79.04945210628905
ssS'0B0AAB000'
p941
(dp942
I8
F-21.38141337773932
sI1
F79.95967774568958
sI3
F-1.6620024816104397
sI7
F-44.85416217342201
sI9
F2.067368600963796
ssS'B000A0B0A'
p943
(dp944
I8
F-95.45771403650014
sI2
F-99.99751986058861
sI3
F-99.58768446961614
sI4
F2.647091260034605
sI6
F-62.191713047136844
ssS'B0A0B0AB0'
p945
(dp946
I9
F-99.62199255981282
sI2
F-99.9999999764953
sI4
F-99.99999979911495
sI6
F-99.99999979911433
ssS'AAB00B000'
p947
(dp948
I8
F-99.99164866324755
sI9
F-34.63999249456109
sI4
F-99.99995193172805
sI5
F-99.97237627912058
sI7
F-99.99997332959323
ssS'B0B00AABA'
p949
(dp950
I2
F-4.0
sI4
F-26.74625730700067
sI5
F-99.99518961822731
ssS'A00BABA0B'
p951
(dp952
I8
F-62.10489394653928
sI2
F-99.99999819055037
sI3
F100.0
ssS'AB0A000B0'
p953
(dp954
I9
F-50.18911508312226
sI3
F-90.87081116374749
sI5
F76.63999999999412
sI6
F-47.32709276965301
sI7
F100.0
ssS'BAB0A00B0'
p955
(dp956
I9
F-8.788000089313375
sI4
F-16.104370451872533
sI6
F60.611145198695176
sI7
F-58.63640254453951
ssS'0ABA0BAB0'
p957
(dp958
I1
F100.0
sI5
F-32.19026012212568
sI9
F15.426694249068198
ssS'00B0A0AB0'
p959
(dp960
I1
F66.89961297636492
sI2
F-4.043518871032674
sI4
F-36.82763292225843
sI6
F7.381547932876591
sI9
F-4.780463621740153
ssS'AB00BABA0'
p961
(dp962
I9
F-96.59799802932015
sI3
F18.944891084626292
sI4
F-99.99999999978911
ssS'ABABBAB00'
p963
(dp964
I8
F-5.0
sI9
F100.0
ssS'BB0ABA000'
p965
(dp966
I8
F-99.99656962542963
sI9
F-85.99751939506376
sI3
F-99.99878578996349
sI7
F-99.99999999997175
ssS'0BAA00B00'
p967
(dp968
I8
F43.93509787572967
sI1
F-19.10181494132003
sI5
F55.04569278998683
sI6
F-31.899554906763427
sI9
F-3.058074693481353
ssS'BAABAB000'
p969
(dp970
I8
F100.0
sI9
F26.036589012574126
sI7
F100.0
ssS'0AB00A00B'
p971
(dp972
I8
F-77.8716431796748
sI1
F-79.49470864778846
sI4
F-78.91076762353876
sI5
F79.85855247934816
sI7
F7.16366121543124
ssS'A00BB00A0'
p973
(dp974
I9
F-99.9999999996046
sI2
F-98.14641189319946
sI3
F-99.96417645261079
sI6
F29.727971647129607
sI7
F-68.33199395881455
ssS'BABA0B0A0'
p975
(dp976
I9
F79.99999999974895
sI5
F100.0
sI7
F-58.79794685590001
ssS'BBAAAB0B0'
p977
(dp978
I9
F-5.0
sI7
F100.0
ssS'B00B0A000'
p979
(dp980
I2
F-32.554314421931366
sI3
F-98.73970309612997
sI5
F-99.90427740812801
sI7
F-39.803251339223024
sI8
F-99.60202952112584
sI9
F-99.97244379999873
ssS'0B0BAA000'
p981
(dp982
I8
F-79.8387979079483
sI1
F-3.1412056664017283
sI3
F-22.564086372202944
sI7
F-46.496805488480035
sI9
F-32.90214976524811
ssS'00000A00B'
p983
(dp984
I1
F-69.76159668385762
sI2
F-1.7284746225007979
sI3
F-61.473423689065115
sI4
F-61.17999131565903
sI5
F52.60017448671834
sI7
F-21.660230003791728
sI8
F-2.4700115297535095
ssS'B0A0B0BA0'
p985
(dp986
I9
F-99.9999999953948
sI2
F-95.79999999985355
sI4
F-99.99960319067607
sI6
F-99.9999999996014
ssS'0A0BBAB00'
p987
(dp988
I8
F-99.99908052361565
sI1
F-99.99897258597815
sI3
F-99.99826445433465
sI9
F-99.99751742853702
ssS'ABBAA00B0'
p989
(dp990
I9
F99.99940950999999
sI6
F100.0
sI7
F99.99999956953279
ssS'AABBB00BA'
p991
(dp992
I6
F-100.0
sI7
F-100.0
ssS'BBABA00A0'
p993
(dp994
I9
F-99.97244379995016
sI6
F-98.95176827845798
sI7
F100.0
ssS'00ABAA0BB'
p995
(dp996
I1
F-96.47760046459187
sI2
F-98.97834315969986
sI7
F100.0
ssS'BBA00AABB'
p997
(dp998
I4
F-100.0
sI5
F100.0
ssS'ABABA00B0'
p999
(dp1000
I9
F100.0
sI6
F80.0
sI7
F100.0
ssS'0A00B0000'
p1001
(dp1002
I1
F-48.308635571887876
sI3
F-47.863364159970544
sI4
F-47.09941675330628
sI6
F-47.1624101395491
sI7
F-44.42926105999304
sI8
F-50.930355921959205
sI9
F-59.429958128225024
ssS'00AB0BBA0'
p1003
(dp1004
I1
F-99.99998928359467
sI2
F-99.99999764964582
sI5
F-99.99998928218098
sI9
F-99.999724437852
ssS'ABBB00AA0'
p1005
(dp1006
I9
F100.0
sI5
F15.240840861157729
sI6
F13.838621200123498
ssS'00BA0B0A0'
p1007
(dp1008
I1
F-91.49129651744687
sI2
F-99.99749834609727
sI7
F-93.45481445175076
sI5
F-96.95943656193151
sI9
F31.105291126231975
ssS'BAB0ABA00'
p1009
(dp1010
I8
F100.0
sI9
F-3.9996519472927
sI4
F-99.99987677093885
ssS'000000000'
p1011
(dp1012
I1
F-24.028748903842832
sI2
F-19.029774999331927
sI3
F-25.89741818292294
sI4
F-38.483652152317404
sI5
F-35.835693135926405
sI6
F-28.840193897459464
sI7
F-33.61209351132998
sI8
F-22.496099214461374
sI9
F24.1268064857286
ssS'00B00A0BA'
p1013
(dp1014
I1
F-78.39797631777782
sI2
F-58.44180924688222
sI4
F-74.24608880255184
sI5
F-65.41712664198947
sI7
F-79.56161039709978
ssS'BAB00A0AB'
p1015
(dp1016
I4
F68.31522184076275
sI5
F100.0
sI7
F-46.43417448970929
ssS'ABBA0BB0A'
p1017
(dp1018
I8
F-100.0
sI5
F100.0
ssS'B00A0000B'
p1019
(dp1020
I2
F-99.9999647746368
sI3
F-74.63184840813722
sI5
F47.87447222328812
sI6
F-99.98933541551686
sI7
F-99.99246495626174
sI8
F-98.66571088402779
ssS'0B00A00B0'
p1021
(dp1022
I1
F-36.4263641403655
sI3
F22.916903994087342
sI4
F0.130036830309745
sI6
F27.261256031778295
sI7
F-39.71170153829213
sI9
F69.28966789592998
ssS'BB0BAA00A'
p1023
(dp1024
I8
F-100.0
sI3
F100.0
sI7
F-99.99171048780454
ssS'BABB0A0BA'
p1025
(dp1026
I5
F-100.0
sI7
F-5.0
ssS'0ABAABBB0'
p1027
(dp1028
I1
F-100.0
sI9
F-5.0
ssS'0BAB00BA0'
p1029
(dp1030
I1
F-5.448037384544138
sI5
F-99.4552474771169
sI6
F-98.18559999985351
sI9
F-99.90814129036954
ssS'BAAB0BAB0'
p1031
(dp1032
I9
F-100.0
sI5
F100.0
ssS'BBAABAB00'
p1033
(dp1034
I8
F-100.0
sI9
F100.0
ssS'AB0B0B0A0'
p1035
(dp1036
I9
F-99.99999819202695
sI3
F-85.99996193427444
sI5
F-63.0784422942558
sI7
F-99.99972443799999
ssS'AAB00BBA0'
p1037
(dp1038
I9
F-95.268179212696
sI4
F-99.99999987085984
sI5
F100.0
ssS'AAB0000B0'
p1039
(dp1040
I9
F55.18232730889549
sI4
F-66.2003769938346
sI5
F-76.91053550282311
sI6
F-30.863696046219985
sI7
F-3.0423677636072353
ssS'AB0A00BAB'
p1041
(dp1042
I3
F-4.0
sI5
F-3.999894738068251
sI6
F-3.999895837542411
ssS'BABBBA0AA'
p1043
(dp1044
I7
F100.0
ssS'0B0A00A0B'
p1045
(dp1046
I8
F32.910468604163086
sI1
F100.0
sI3
F79.09801298278224
sI5
F77.04791693420786
sI6
F76.61565085902464
ssS'ABABA00BB'
p1047
(dp1048
I6
F-100.0
sI7
F100.0
ssS'0AAB0B0AB'
p1049
(dp1050
I1
F100.0
sI5
F99.999822853
sI7
F-96.19340500253838
ssS'BA0A0BB00'
p1051
(dp1052
I8
F-66.8957765734361
sI9
F-57.20104713561502
sI3
F-79.99999736590911
sI5
F-8.82782021329933
ssS'B0A0B000A'
p1053
(dp1054
I8
F72.03889885026959
sI2
F67.97843915052768
sI4
F5.087744880908941
sI6
F100.0
sI7
F79.99996849181677
ssS'ABBBB0AA0'
p1055
(dp1056
I9
F100.0
sI6
F-5.0
ssS'BA00BBA0A'
p1057
(dp1058
I8
F100.0
sI3
F-99.4556692853562
sI4
F60.247743585036844
ssS'ABBABB0AA'
p1059
(dp1060
I7
F100.0
ssS'BAABAB00B'
p1061
(dp1062
I8
F100.0
sI7
F100.0
ssS'B0AA0B000'
p1063
(dp1064
I8
F-47.02444182687656
sI9
F-3.0762424422099905
sI2
F-3.1999999596794555
sI5
F-3.153236648813439
sI7
F-3.9729775805975702
ssS'AB00BAA0B'
p1065
(dp1066
I8
F13.683216394125587
sI3
F-78.02426649161197
sI4
F100.0
ssS'B00B0A00A'
p1067
(dp1068
I8
F-85.12680902246979
sI2
F-99.03176824339111
sI3
F100.0
sI5
F26.135991098382434
sI7
F61.31617859387862
ssS'B000A00B0'
p1069
(dp1070
I2
F-79.9608089435308
sI3
F-69.3459578743689
sI4
F-1.5784060854521504
sI6
F-46.424102236179664
sI7
F-57.151957236785876
sI9
F-56.02247364727843
ssS'B0B00AAB0'
p1071
(dp1072
I9
F-99.90092084407182
sI2
F-5.436428293271973
sI4
F-78.38695994991504
sI5
F-75.88404739749507
ssS'AAB0BB000'
p1073
(dp1074
I8
F-100.0
sI9
F-95.79997519380416
sI4
F-99.99993123034145
sI7
F-99.999973326232
ssS'BB0B0AAA0'
p1075
(dp1076
I9
F100.0
sI3
F79.99999999999999
sI5
F26.094354576937008
ssS'B000B0AA0'
p1077
(dp1078
I9
F100.0
sI2
F-96.56001453944391
sI3
F-99.99999999999972
sI4
F27.566182350367185
sI6
F-99.90781218750288
ssS'BB0AAB00A'
p1079
(dp1080
I8
F-99.83668910704478
sI3
F-3.518695371965685
sI7
F-99.99144241617948
ssS'B00AB0AB0'
p1081
(dp1082
I9
F-99.99999962388058
sI2
F-98.18559999923374
sI3
F-99.99999993973458
sI6
F-99.99999979911135
ssS'0A0A0BBB0'
p1083
(dp1084
I1
F-99.52565761617623
sI3
F-78.22425902218191
sI5
F-73.37268198633846
sI9
F-5.436429265036522
ssS'BA00AB0B0'
p1085
(dp1086
I9
F-74.59640029771113
sI3
F-79.99999839292241
sI4
F-79.98836261490399
sI7
F0.9035394557653067
ssS'AABB0A0B0'
p1087
(dp1088
I9
F-3.8517524341233242
sI5
F60.56873145604728
sI7
F-3.999999999999999
ssS'A0BBA0A0B'
p1089
(dp1090
I8
F-99.95101091072603
sI2
F-99.98517038686715
sI6
F-4.0
ssS'0B00A0BA0'
p1091
(dp1092
I1
F-3.119326663293662
sI3
F-56.676597886735685
sI4
F66.00424991431262
sI6
F-42.22124187038731
sI9
F-79.97550559753697
ssS'0B0ABAA0B'
p1093
(dp1094
I8
F-46.01163265299999
sI1
F100.0
sI3
F-99.999995217031
ssS'ABABBA000'
p1095
(dp1096
I8
F1.2920094809681189
sI9
F100.0
sI7
F-73.24766917330776
ssS'B0A000B0A'
p1097
(dp1098
I8
F26.000000618156932
sI2
F-99.98449521517182
sI4
F-1.626752336040708
sI5
F-99.59186571016585
sI6
F100.0
ssS'0B0A00B00'
p1099
(dp1100
I1
F-79.90610449648288
sI3
F-60.881515912227
sI5
F-30.150698522952123
sI6
F-76.83336099162369
sI8
F-75.64317749150946
sI9
F-79.0515539722382
ssS'B0A00ABAB'
p1101
(dp1102
I2
F-100.0
sI4
F-99.99924743858746
sI5
F-96.59797991021219
ssS'B0B00AA00'
p1103
(dp1104
I8
F-99.99619014215448
sI9
F-92.04336364435795
sI2
F-2.239848244737061
sI4
F-99.9999999999992
sI5
F-98.9696773911364
ssS'AAB000ABB'
p1105
(dp1106
I4
F100.0
sI5
F-73.72215034734273
sI6
F72.93338807266083
ssS'B00ABA0BA'
p1107
(dp1108
I2
F19.425111247788223
sI3
F100.0
sI7
F-91.42953713966405
ssS'B00A0A0BB'
p1109
(dp1110
I2
F-84.96784208799278
sI3
F-99.5926775841732
sI5
F100.0
sI7
F-84.82391321903445
ssS'ABABBABA0'
p1111
(dp1112
I9
F100.0
ssS'B0AB0B00A'
p1113
(dp1114
I8
F-99.99999999999642
sI2
F-99.99999999999878
sI5
F-99.9081459511701
sI7
F-99.9724237115302
ssS'0BBA0A000'
p1115
(dp1116
I8
F-50.57923029502244
sI1
F79.99994884547174
sI7
F-87.53838455757753
sI5
F100.0
sI9
F-95.02645136120364
ssS'0ABBB0ABA'
p1117
(dp1118
I1
F-100.0
sI6
F-5.0
ssS'00BBA00BA'
p1119
(dp1120
I1
F100.0
sI2
F60.09317065314278
sI6
F35.296180090651745
sI7
F-3.510478294961744
ssS'BABA0B000'
p1121
(dp1122
I8
F-99.59542013902596
sI9
F-24.74800002063043
sI5
F-99.98382897803495
sI7
F-98.9143549262084
ssS'0B0AABA0B'
p1123
(dp1124
I8
F-96.59725340128398
sI1
F100.0
sI3
F99.9999985651093
ssS'BA00BB00A'
p1125
(dp1126
I8
F-85.99982952743625
sI3
F-99.39076594873089
sI4
F-4.000094310956688
sI7
F-99.99948365012638
ssS'BBAABB00A'
p1127
(dp1128
I8
F-5.0
sI7
F-100.0
ssS'A0000BB00'
p1129
(dp1130
I2
F-73.42173075060936
sI3
F71.92153226070732
sI4
F-67.46436414402048
sI5
F-79.62867546411488
sI8
F-78.00728837299069
sI9
F-79.6970793774176
ssS'AA0BAB0B0'
p1131
(dp1132
I9
F100.0
sI3
F100.0
sI7
F80.0
ssS'ABAB0BA00'
p1133
(dp1134
I8
F-99.68555077060049
sI9
F-96.19973653753996
sI5
F100.0
ssS'ABB00AABB'
p1135
(dp1136
I4
F100.0
sI5
F-5.0
ssS'BABBB0A0A'
p1137
(dp1138
I8
F100.0
sI6
F-5.0
ssS'B0000B0AA'
p1139
(dp1140
I2
F79.99999440201309
sI3
F21.71719018435293
sI4
F43.82379911617589
sI5
F79.93531192339947
sI7
F100.0
ssS'BA0BABA0B'
p1141
(dp1142
I8
F100.0
sI3
F100.0
ssS'BAA0B0B0A'
p1143
(dp1144
I8
F-98.16649436799426
sI4
F1.3348652229815876
sI6
F100.0
ssS'ABBA00B00'
p1145
(dp1146
I8
F-95.7996395317164
sI9
F-99.99997936872093
sI5
F79.9999998423362
sI6
F27.260744023258482
ssS'00BABB00A'
p1147
(dp1148
I8
F-62.191712874118636
sI1
F-99.66597182521612
sI2
F-99.99999678348206
sI7
F79.52371029633163
ssS'ABAB0BA0B'
p1149
(dp1150
I8
F-100.0
sI5
F100.0
ssS'ABBB0AB0A'
p1151
(dp1152
I8
F-100.0
sI5
F100.0
ssS'BAABBAAB0'
p1153
(dp1154
I9
F100.0
ssS'ABB0A0BA0'
p1155
(dp1156
I9
F100.0
sI4
F80.0
sI6
F80.0
ssS'AABABB000'
p1157
(dp1158
I8
F-100.0
sI9
F-95.17604687588829
sI7
F100.0
ssS'BB00AABA0'
p1159
(dp1160
I9
F-99.99999999999993
sI3
F27.02411424829276
sI4
F100.0
ssS'ABA000B0B'
p1161
(dp1162
I8
F-4.0
sI4
F-97.63498146627272
sI5
F-81.58182524236274
sI6
F-97.57308789334802
ssS'ABBA00B0A'
p1163
(dp1164
I8
F-84.92097089120836
sI5
F100.0
sI6
F-50.45343932440143
ssS'BB0000A0A'
p1165
(dp1166
I8
F100.0
sI3
F79.85783798710679
sI4
F-97.20894876472532
sI5
F-99.69131179042878
sI6
F-88.1149642848938
ssS'B000000AB'
p1167
(dp1168
I2
F-98.88499488152499
sI3
F-99.96564742705611
sI4
F-99.99999510273979
sI5
F43.23060430560899
sI6
F-85.99494858684163
sI7
F-99.58795181581898
ssS'0000BBA0A'
p1169
(dp1170
I8
F100.0
sI1
F-84.97858902103371
sI2
F-99.92659741362141
sI3
F-98.72837980116157
sI4
F65.49109688504399
ssS'BBA00AB00'
p1171
(dp1172
I8
F-57.52739450308509
sI9
F100.0
sI4
F69.91779550388507
sI5
F-97.30929128397352
ssS'B00A0BBAA'
p1173
(dp1174
I2
F15.240459582780332
sI3
F-4.0
sI5
F-1.936119999995018
ssS'AB0BABA0B'
p1175
(dp1176
I8
F-100.0
sI3
F100.0
ssS'ABABB0000'
p1177
(dp1178
I8
F-99.99999999985356
sI9
F-99.9999999998458
sI6
F-99.99999999993673
sI7
F-99.9999999998532
ssS'BA00A0B00'
p1179
(dp1180
I8
F100.0
sI9
F-99.7131342139208
sI3
F-62.172168236565184
sI4
F62.056248168378936
sI6
F-99.99925593377273
ssS'A0BB0B0AA'
p1181
(dp1182
I2
F42.16138272804908
sI5
F100.0
sI7
F99.99999999651321
ssS'0AABB0AB0'
p1183
(dp1184
I1
F100.0
sI6
F80.0
sI9
F-99.6937920709199
ssS'BABA0B00A'
p1185
(dp1186
I8
F80.0
sI5
F-3.956683328047302
sI7
F-3.9531727440462783
ssS'ABA00BA0B'
p1187
(dp1188
I8
F80.0
sI4
F100.0
sI5
F100.0
ssS'BAAABB0B0'
p1189
(dp1190
I9
F-5.0
sI7
F-100.0
ssS'ABABBA00B'
p1191
(dp1192
I8
F-5.0
sI7
F-100.0
ssS'B00ABB00A'
p1193
(dp1194
I8
F-43.83336212857427
sI2
F-5.882473794276332
sI3
F-57.669711281803025
sI7
F-4.000062892524152
ssS'00A0BAB00'
p1195
(dp1196
I8
F-2.2963388505394406
sI1
F79.99999999981397
sI2
F46.31829233397298
sI4
F-65.12895323836085
sI9
F100.0
ssS'ABB00A0B0'
p1197
(dp1198
I9
F-99.6552651922035
sI4
F-50.70560185136756
sI5
F15.86513477721968
sI7
F-98.94224759933621
ssS'A0BBA0AB0'
p1199
(dp1200
I9
F100.0
sI2
F72.44001218764184
sI6
F-3.9987384769176044
ssS'0000AABB0'
p1201
(dp1202
I1
F-62.19999922994806
sI2
F-98.94006142843301
sI3
F-61.810210211443064
sI4
F100.0
sI9
F79.0974298474105
ssS'AABB0A0BB'
p1203
(dp1204
I5
F-100.0
sI7
F-5.0
ssS'BBAA0B000'
p1205
(dp1206
I8
F-4.000342413897823
sI9
F-4.129370248388583
sI5
F-3.998839827029707
sI7
F-79.99994031941736
ssS'0B0000BA0'
p1207
(dp1208
I1
F-29.461211992199893
sI3
F-72.45501408842934
sI4
F-79.19919545965462
sI5
F-76.17052725990231
sI6
F-78.94626639019478
sI9
F-76.86430645045485
ssS'BAB0A0000'
p1209
(dp1210
I8
F100.0
sI9
F19.670203578630655
sI4
F62.52884163118386
sI6
F21.762217901487467
sI7
F18.13937282973116
ssS'BABA0A0B0'
p1211
(dp1212
I9
F18.944883179600005
sI5
F100.0
sI7
F2.8846223142800014
ssS'A0ABA00BB'
p1213
(dp1214
I2
F100.0
sI6
F-99.96415685153018
sI7
F100.0
ssS'BBABA00BA'
p1215
(dp1216
I6
F100.0
sI7
F100.0
ssS'0B0B00A0A'
p1217
(dp1218
I8
F100.0
sI1
F79.99308434643753
sI3
F79.72015634125208
sI5
F79.99999999591847
sI6
F79.99992791259028
ssS'AABBA0B0B'
p1219
(dp1220
I8
F100.0
sI6
F-100.0
ssS'00A0B00AB'
p1221
(dp1222
I1
F32.432257229714494
sI2
F-99.9999921508522
sI4
F-99.8708300537871
sI6
F-93.00991345500432
sI7
F-98.0903734440032
ssS'BAB0A0B0A'
p1223
(dp1224
I8
F100.0
sI4
F80.0
sI6
F26.00074401871808
ssS'A000BA0BB'
p1225
(dp1226
I2
F-62.197499804715136
sI3
F-99.9724437840375
sI4
F-99.9999081833137
sI7
F-99.99999962321776
ssS'B00AABBBA'
p1227
(dp1228
I2
F-5.0
sI3
F-5.0
ssS'AB0BB00AA'
p1229
(dp1230
I3
F-99.69381978274637
sI6
F80.0
sI7
F100.0
ssS'B00A000AB'
p1231
(dp1232
I2
F55.3648648046911
sI3
F-39.77516991779903
sI5
F79.99999941609515
sI6
F-96.49971695097719
sI7
F-99.19749144307549
ssS'BB0BBAA0A'
p1233
(dp1234
I8
F100.0
sI3
F100.0
ssS'ABBA0ABAB'
p1235
(dp1236
I5
F100.0
ssS'0BBBA0AA0'
p1237
(dp1238
I1
F-3.9999971867924096
sI6
F-91.59327999999948
sI9
F100.0
ssS'00AB0ABB0'
p1239
(dp1240
I1
F-79.90714973570148
sI2
F-98.64543396054499
sI5
F-98.97937970613344
sI9
F100.0
ssS'BA00BAAB0'
p1241
(dp1242
I9
F54.800000253170076
sI3
F-62.108058948646104
sI4
F-99.99867721540505
ssS'AA0B000B0'
p1243
(dp1244
I9
F79.99999967958769
sI3
F100.0
sI5
F79.99561032206407
sI6
F18.921932250017214
sI7
F17.68627382191844
ssS'BA0AAB0BB'
p1245
(dp1246
I3
F-100.0
sI7
F-100.0
ssS'BB00A0AB0'
p1247
(dp1248
I9
F-99.90814571163118
sI3
F100.0
sI4
F-98.84849267079157
sI6
F-99.99997370139829
ssS'BABA0B0BA'
p1249
(dp1250
I5
F-5.0
sI7
F-5.0
ssS'BAB000000'
p1251
(dp1252
I4
F-78.19589046853183
sI5
F-3.072012648826163
sI6
F-57.69097341113912
sI7
F-78.73882246303154
sI8
F-79.26856416453151
sI9
F-72.08225748202523
ssS'0ABB00000'
p1253
(dp1254
I1
F-77.19593986170864
sI5
F-1.1378719683226945
sI6
F-73.78280714540321
sI7
F-79.52317941506563
sI8
F-79.9710208064732
sI9
F-78.77903002062831
ssS'00B00BAA0'
p1255
(dp1256
I1
F-58.009999683305935
sI2
F-83.81076588225108
sI4
F-86.75171640692402
sI5
F-99.5734339805717
sI9
F100.0
ssS'B0AB0000A'
p1257
(dp1258
I8
F-99.96063583370537
sI2
F-98.92229900534196
sI5
F37.74984378584047
sI6
F100.0
sI7
F80.0
ssS'AB0BBAB0A'
p1259
(dp1260
I8
F-100.0
sI3
F100.0
ssS'00A00BA0B'
p1261
(dp1262
I8
F-75.66152825726022
sI1
F46.640261320537405
sI2
F79.91834586872996
sI4
F79.99993365332021
sI5
F100.0
ssS'BB0B0A00A'
p1263
(dp1264
I8
F-96.59775487915482
sI3
F100.0
sI5
F-92.39725417433675
sI7
F-50.45015805809621
ssS'AB00A0BB0'
p1265
(dp1266
I9
F100.0
sI3
F-98.97789541483972
sI4
F-99.99999999944428
sI6
F-99.99968649711735
ssS'B000A0000'
p1267
(dp1268
I2
F17.441150318772095
sI3
F-15.556611484204346
sI4
F-1.1770180322950807
sI6
F-69.04181540924759
sI7
F7.43180419380891
sI8
F15.383980721912941
sI9
F-18.548565657768414
ssS'BABB000A0'
p1269
(dp1270
I9
F-61.76261790656223
sI5
F100.0
sI6
F-99.96103525925771
sI7
F69.91999999989456
ssS'AABB0B00A'
p1271
(dp1272
I8
F-58.398903298238864
sI5
F100.0
sI7
F79.598729170016
ssS'B0B0AABA0'
p1273
(dp1274
I9
F-99.9999985651093
sI2
F100.0
sI4
F99.99999956953279
ssS'000ABAB0B'
p1275
(dp1276
I8
F-99.99999255819883
sI1
F-99.99999709621562
sI2
F-99.99999999999977
sI3
F-99.99999770713318
ssS'00A0A00BB'
p1277
(dp1278
I1
F-96.59446269844159
sI2
F-99.99141445432295
sI4
F-99.99895920702252
sI6
F26.334054999425845
sI7
F100.0
ssS'A00BBABA0'
p1279
(dp1280
I9
F-98.97667055351783
sI2
F-98.85990274996098
sI3
F80.0
ssS'BA00B0AB0'
p1281
(dp1282
I9
F-4.050426121798361
sI3
F-99.99999973884594
sI4
F-99.99559100012632
sI6
F-95.75100894191314
ssS'BAABB0A00'
p1283
(dp1284
I8
F-100.0
sI9
F-88.65999998535227
sI6
F-99.99999945720398
ssS'ABBA0A00B'
p1285
(dp1286
I8
F79.99999999721058
sI5
F100.0
sI7
F99.99998405677
ssS'AAB0B0000'
p1287
(dp1288
I8
F-98.73999999983718
sI9
F-99.96281508255531
sI4
F-98.52846165140234
sI6
F-26.629101508877866
sI7
F-3.23884713838612
ssS'00BBAB0AA'
p1289
(dp1290
I1
F100.0
sI2
F99.9980317
sI7
F99.9999985651093
ssS'0000A0BB0'
p1291
(dp1292
I1
F-99.99877939854206
sI2
F-93.82988698143679
sI3
F-99.99670957702958
sI4
F-99.67765397250692
sI6
F-61.82199386088162
sI9
F-1.1036914433552933
ssS'000BAABB0'
p1293
(dp1294
I1
F-99.99999999999679
sI2
F-99.99999776632063
sI3
F-99.99999397345906
sI9
F-99.99999397345906
ssS'ABAB00B0A'
p1295
(dp1296
I8
F80.0
sI5
F100.0
sI6
F100.0
ssS'A00B00A0B'
p1297
(dp1298
I8
F-37.66391259045051
sI2
F-4.414489664327858
sI3
F75.02727720722847
sI5
F-3.2467112096804835
sI6
F-3.1999999960123096
ssS'BBAB0000A'
p1299
(dp1300
I8
F-88.6569160712387
sI5
F27.05972270190523
sI6
F100.0
sI7
F80.0
ssS'ABBA0A0BB'
p1301
(dp1302
I5
F100.0
sI7
F100.0
ssS'BBA0AA00B'
p1303
(dp1304
I8
F80.0
sI4
F100.0
sI7
F100.0
ssS'BABB0A0AB'
p1305
(dp1306
I5
F100.0
sI7
F-100.0
ssS'B000A000B'
p1307
(dp1308
I2
F-58.398221839768226
sI3
F-70.61359643057588
sI4
F-61.88242042827348
sI6
F-7.394390587512595
sI7
F-78.69671113225955
sI8
F-56.35753746208795
ssS'BABB000AA'
p1309
(dp1310
I5
F100.0
sI6
F-50.55131507056119
sI7
F99.999822853
ssS'B0B0AABAB'
p1311
(dp1312
I2
F100.0
sI4
F100.0
ssS'BA0BA000B'
p1313
(dp1314
I8
F100.0
sI3
F-99.99977075172657
sI6
F-99.99999903456376
sI7
F79.99965187222831
ssS'B00AB0000'
p1315
(dp1316
I2
F-99.55105516945454
sI3
F-93.8773951300941
sI6
F-98.61142790243044
sI7
F-83.53458610846192
sI8
F-99.9644661701362
sI9
F-75.2959139328711
ssS'000A00ABB'
p1317
(dp1318
I1
F100.0
sI2
F55.99529476887673
sI3
F79.99998582505822
sI5
F79.99999999999858
sI6
F79.74841097303852
ssS'AAB0A0BB0'
p1319
(dp1320
I9
F100.0
sI4
F-99.9967759232464
sI6
F-62.19098858021131
ssS'BA0AAB0B0'
p1321
(dp1322
I9
F-4.0
sI3
F56.389104569135114
sI7
F-3.999999724104781
ssS'AABAABBB0'
p1323
(dp1324
I9
F100.0
ssS'BAAB0BA0B'
p1325
(dp1326
I8
F-100.0
sI5
F100.0
ssS'BAB00000A'
p1327
(dp1328
I8
F-22.996853027799986
sI4
F-69.20250780371205
sI5
F-3.1463212583021125
sI6
F-19.247614028804236
sI7
F-3.191874492257936
ssS'0BAA0BB00'
p1329
(dp1330
I8
F-4.0
sI1
F-79.51717579453276
sI5
F-25.308204481965305
sI9
F-4.0003426423497555
ssS'BAA0BBAB0'
p1331
(dp1332
I9
F-100.0
sI4
F-100.0
ssS'0BBA0A0B0'
p1333
(dp1334
I1
F38.455994376367485
sI7
F-98.96842987238665
sI5
F100.0
sI9
F-99.87223242962916
ssS'00BA0BBA0'
p1335
(dp1336
I1
F-99.99907914906673
sI2
F-99.99144260508974
sI5
F-99.99173259757572
sI9
F-99.99971671796165
ssS'B00AB000A'
p1337
(dp1338
I8
F-7.806147408677338
sI2
F-17.58737887967105
sI3
F29.977370041882324
sI6
F-79.90629672266056
sI7
F-61.835539729431304
ssS'B0B0AAB00'
p1339
(dp1340
I8
F-88.56813941058522
sI9
F-85.23022054447796
sI2
F-49.83939325182736
sI4
F100.0
ssS'0ABABB000'
p1341
(dp1342
I8
F-99.99685553139565
sI1
F-99.99999396621159
sI7
F-99.99987906205715
sI9
F-99.99959149194514
ssS'BA0AB0BA0'
p1343
(dp1344
I9
F-98.13661119689047
sI3
F-93.78866828714581
sI6
F-99.999995217031
ssS'BAB0A0B00'
p1345
(dp1346
I8
F100.0
sI9
F-99.90814571066275
sI4
F79.85325812511054
sI6
F-98.97939397333948
ssS'BBAB0B0AA'
p1347
(dp1348
I5
F-100.0
sI7
F100.0
ssS'AB0BB00A0'
p1349
(dp1350
I9
F-99.99999999822542
sI3
F-99.99828040619137
sI6
F-4.038785344545371
sI7
F-99.95101090990448
ssS'ABB0BA0A0'
p1351
(dp1352
I9
F-98.97917677997992
sI4
F-99.999999294776
sI7
F80.0
ssS'AAB00000B'
p1353
(dp1354
I8
F-99.88659760509779
sI4
F-99.68555133200212
sI5
F-99.99847182855872
sI6
F-72.37529690061265
sI7
F-99.99999999999878
ssS'ABBAB000A'
p1355
(dp1356
I8
F-95.57462977511986
sI6
F-99.999995217031
sI7
F100.0
ssS'AA0B000BB'
p1357
(dp1358
I3
F100.0
sI5
F45.06801755840007
sI6
F-96.94620196182969
sI7
F3.3174472931088594
ssS'0BBBA0AAB'
p1359
(dp1360
I1
F-100.0
sI6
F-100.0
ssS'00BABBA00'
p1361
(dp1362
I8
F-99.96986862516388
sI1
F100.0
sI2
F-99.95094259556929
sI9
F79.99998780411066
ssS'0A0B0B0A0'
p1363
(dp1364
I7
F-99.90474477760013
sI1
F-80.9925824538594
sI3
F65.19491719857834
sI5
F100.0
sI9
F75.260301603704
ssS'B0ABB000A'
p1365
(dp1366
I8
F-62.1999999986713
sI2
F-99.99173313995091
sI6
F100.0
sI7
F-99.99969954736878
ssS'BAAAB0BBA'
p1367
(dp1368
I6
F100.0
ssS'A0A0BBA0B'
p1369
(dp1370
I8
F-99.99925544016145
sI2
F100.0
sI4
F100.0
ssS'ABAABB0AB'
p1371
(dp1372
I7
F100.0
ssS'ABBA0B00A'
p1373
(dp1374
I8
F79.99999965562623
sI5
F100.0
sI7
F99.99999999999977
ssS'AB0A0B0AB'
p1375
(dp1376
I3
F-3.855463826473944
sI5
F-92.08727769840738
sI7
F100.0
ssS'B0000B0A0'
p1377
(dp1378
I2
F-76.76256486243415
sI3
F-76.96422039974094
sI4
F-76.50144616139612
sI5
F7.3292517120480625
sI7
F-74.39579684828556
sI9
F-65.45645845164591
ssS'A0000BBAB'
p1379
(dp1380
I2
F-95.791712459923
sI3
F-3.9859830795950177
sI4
F-24.21297054343237
sI5
F-99.98526344010115
ssS'0BBBAA00A'
p1381
(dp1382
I8
F-99.99991038368576
sI1
F100.0
sI7
F-99.99098237188034
ssS'BABABB0AA'
p1383
(dp1384
I7
F100.0
ssS'ABBBA00AB'
p1385
(dp1386
I6
F-5.0
sI7
F-100.0
ssS'BBAA0BAB0'
p1387
(dp1388
I9
F-100.0
sI5
F100.0
ssS'A0BA0ABB0'
p1389
(dp1390
I9
F-49.838809509999976
sI2
F-99.9980317
sI5
F100.0
ssS'BA0ABB000'
p1391
(dp1392
I8
F-98.69148268879889
sI9
F-21.4351828
sI3
F-93.73526914391539
sI7
F-99.93393898293644
ssS'0ABABBA00'
p1393
(dp1394
I8
F-99.99977679037595
sI1
F100.0
sI9
F80.0
ssS'0BB0000AA'
p1395
(dp1396
I1
F79.9999793870859
sI4
F-89.60188268781683
sI5
F26.12873187691619
sI6
F-74.47328041851317
sI7
F100.0
ssS'AB0000B0A'
p1397
(dp1398
I8
F5.4528291161305305
sI3
F79.99999995178761
sI4
F-67.5078174670846
sI5
F100.0
sI6
F46.56537208819003
ssS'ABABAB0B0'
p1399
(dp1400
I9
F100.0
sI7
F100.0
ssS'BB00000A0'
p1401
(dp1402
I3
F55.98565362808044
sI4
F-99.99956790245184
sI5
F-76.66085981341186
sI6
F-100.0
sI7
F-88.63243857979349
sI9
F-96.42264159487783
ssS'BBA00BAA0'
p1403
(dp1404
I9
F99.99999999997175
sI4
F79.99999348863768
sI5
F100.0
ssS'BABA0000B'
p1405
(dp1406
I8
F-99.99999999560316
sI5
F-99.9999999954845
sI6
F-99.99729673674294
sI7
F-99.99999999995175
ssS'AABB000BA'
p1407
(dp1408
I5
F100.0
sI6
F1.912355444338738
sI7
F54.80037845840048
ssS'BBA0BAA00'
p1409
(dp1410
I8
F-88.23163953647195
sI9
F100.0
sI4
F-99.99999999999993
ssS'0BAABBB0A'
p1411
(dp1412
I8
F-5.0
sI1
F-100.0
ssS'BAB0B0AA0'
p1413
(dp1414
I9
F100.0
sI4
F-96.50364578990552
sI6
F-96.46707621410553
ssS'AABB0B000'
p1415
(dp1416
I8
F-98.97110204096336
sI9
F-96.58693193766726
sI5
F-98.5778248727869
sI7
F-99.98970842919995
ssS'ABB0AA0B0'
p1417
(dp1418
I9
F99.99999999999977
sI4
F100.0
sI7
F79.99999999999982
ssS'BAA0000BB'
p1419
(dp1420
I4
F-99.61893818014666
sI5
F-99.99992605357892
sI6
F-99.99990678862946
sI7
F-99.99993283315592
ssS'0BA0BB0A0'
p1421
(dp1422
I1
F-79.24930767686944
sI7
F-95.31044150225455
sI4
F-4.038783792370408
sI9
F-88.35381999556935
ssS'ABABB0B0A'
p1423
(dp1424
I8
F-100.0
sI6
F100.0
ssS'BAA0A0BB0'
p1425
(dp1426
I9
F-99.99988093047837
sI4
F-99.9999999999983
sI6
F-100.0
ssS'BB00A0000'
p1427
(dp1428
I3
F-5.074236547578916
sI4
F-99.69359193581101
sI6
F-99.69381392415593
sI7
F-99.96989677323025
sI8
F-98.7399739689124
sI9
F-99.96597989455816
ssS'0A0ABBAB0'
p1429
(dp1430
I1
F100.0
sI3
F-3.5237199999818944
sI9
F-3.999894715716979
ssS'ABABB00A0'
p1431
(dp1432
I9
F-98.57814190555146
sI6
F-3.814250799981858
sI7
F-99.99999988718315
ssS'BBAABBA00'
p1433
(dp1434
I8
F-100.0
sI9
F-100.0
ssS'AB0B0A0BA'
p1435
(dp1436
I3
F99.99999996125796
sI5
F100.0
sI7
F-46.43543170000001
ssS'0BA0BAB00'
p1437
(dp1438
I8
F-55.42625898291264
sI1
F-93.40504363509852
sI4
F-99.98864183748928
sI9
F100.0
ssS'B000A0A0B'
p1439
(dp1440
I8
F79.99999935716896
sI2
F79.67916140720143
sI3
F100.0
sI4
F79.72784974201511
sI6
F-31.984568500661865
ssS'B0BBA00A0'
p1441
(dp1442
I9
F-99.99991273838306
sI2
F100.0
sI6
F26.002506221825712
sI7
F-99.90728994879058
ssS'0BBABBAA0'
p1443
(dp1444
I1
F100.0
sI9
F100.0
ssS'AA0ABBB0B'
p1445
(dp1446
I8
F-100.0
sI3
F100.0
ssS'ABA0ABB00'
p1447
(dp1448
I8
F60.09210500615231
sI9
F100.0
sI4
F1.7682800002061132
ssS'ABAB00BAB'
p1449
(dp1450
I5
F-5.0
sI6
F-5.0
ssS'BA0000000'
p1451
(dp1452
I3
F-70.99291603882992
sI4
F-17.806687591859088
sI5
F4.18600375635821
sI6
F-62.53304768435575
sI7
F-12.43182828256576
sI8
F-58.22672263986168
sI9
F-2.83669458694236
ssS'0B00BA0AB'
p1453
(dp1454
I1
F-4.000000765385649
sI3
F-79.82033958750888
sI4
F-99.62097304129439
sI7
F-92.1358400895542
ssS'BB00000AA'
p1455
(dp1456
I3
F61.89006318996217
sI4
F-61.33399528034012
sI5
F-68.62203554737201
sI6
F79.57190768153319
sI7
F100.0
ssS'BABB0A0A0'
p1457
(dp1458
I9
F-88.3145492289128
sI5
F100.0
sI7
F79.99999999974895
ssS'0B0B0AA00'
p1459
(dp1460
I8
F-1.1674536373948987
sI1
F-9.431874319064086
sI3
F74.75846358090595
sI5
F-3.536434057058573
sI9
F79.999999412455
ssS'0A00B00AB'
p1461
(dp1462
I1
F-76.94387327585966
sI3
F-88.3535967801355
sI4
F-99.99949966896881
sI6
F-99.37093448082501
sI7
F-98.50984379026212
ssS'B0BABA00A'
p1463
(dp1464
I8
F-100.0
sI2
F-99.99518319557644
sI7
F-99.99559071617033
ssS'A000B0ABB'
p1465
(dp1466
I2
F74.70765279182464
sI3
F-99.69381938788631
sI4
F100.0
sI6
F-99.99960317528078
ssS'ABB0B00AA'
p1467
(dp1468
I4
F-84.95175303787266
sI6
F26.000000183626526
sI7
F100.0
ssS'A00BA0B00'
p1469
(dp1470
I8
F25.41041680290489
sI9
F100.0
sI2
F79.99993559517013
sI3
F79.40015489877362
sI6
F-8.399248243847643
ssS'ABBB000AA'
p1471
(dp1472
I5
F100.0
sI6
F79.99999999974753
sI7
F99.999995217031
ssS'0AAB0B00B'
p1473
(dp1474
I8
F-50.85069099570342
sI1
F100.0
sI5
F80.0
sI7
F-98.55049008026252
ssS'BAB0A0BBA'
p1475
(dp1476
I4
F-5.0
sI6
F-100.0
ssS'00BABBAA0'
p1477
(dp1478
I1
F100.0
sI2
F-96.59799976806528
sI9
F99.99999999999923
ssS'AB00BA000'
p1479
(dp1480
I8
F27.72416796272597
sI9
F-99.97244379999555
sI3
F-93.63488158714152
sI4
F-99.96460643405084
sI7
F-99.99999818751508
ssS'ABBABB00A'
p1481
(dp1482
I8
F-100.0
sI7
F100.0
ssS'AABA0B0B0'
p1483
(dp1484
I9
F79.9947512
sI5
F-88.26195930843888
sI7
F100.0
ssS'AB0AABB00'
p1485
(dp1486
I8
F-3.9999963438984913
sI9
F100.0
sI3
F1.2920028123857747
ssS'ABBA0B000'
p1487
(dp1488
I8
F68.26055907806919
sI9
F69.89550559963904
sI5
F-82.46759819278914
sI7
F100.0
ssS'0B0BABA0A'
p1489
(dp1490
I8
F99.99999999895397
sI1
F100.0
sI3
F99.99999956953279
ssS'ABB000A0B'
p1491
(dp1492
I8
F-99.99767120017616
sI4
F100.0
sI5
F-57.558877190248126
sI6
F55.27665966134066
ssS'ABAB0A00B'
p1493
(dp1494
I8
F-4.0
sI5
F13.640107050772798
sI7
F-4.0
ssS'0AA0BBB00'
p1495
(dp1496
I8
F-85.98877412230036
sI1
F100.0
sI4
F38.84986427377578
sI9
F-99.02372287763842
ssS'BBAAAB000'
p1497
(dp1498
I8
F1.292000253299241
sI9
F55.28164243713511
sI7
F100.0
ssS'B00A0A00B'
p1499
(dp1500
I8
F-57.75725854917857
sI2
F-33.10051717135015
sI3
F-84.19832387758223
sI5
F100.0
sI7
F46.86660893012579
ssS'AB0B000BA'
p1501
(dp1502
I3
F75.56929981213428
sI5
F100.0
sI6
F-57.340245658688744
sI7
F-70.03089494063775
ssS'0ABBBAA00'
p1503
(dp1504
I8
F-3.9999593765946035
sI1
F-4.0
sI9
F-3.9999679075534686
ssS'B00000BA0'
p1505
(dp1506
I2
F-99.99991274365559
sI3
F-99.9969376463004
sI4
F-79.9999586664036
sI5
F-88.6249689680834
sI6
F-99.79353648115472
sI9
F-99.88637758039096
ssS'ABBB0BA0A'
p1507
(dp1508
I8
F100.0
sI5
F100.0
ssS'BA00A00BB'
p1509
(dp1510
I3
F-98.9793981920376
sI4
F-99.99885820419141
sI6
F-93.92444378523517
sI7
F-53.77531990127041
ssS'BABB0AA00'
p1511
(dp1512
I8
F80.0
sI9
F-2.4085069490329203
sI5
F72.44385787502013
ssS'BBAB0AAAB'
p1513
(dp1514
I5
F100.0
ssS'AA0BB00B0'
p1515
(dp1516
I9
F-95.79804614686994
sI3
F100.0
sI6
F12.075135486239965
sI7
F-79.81174369689766
ssS'A0BA0B000'
p1517
(dp1518
I8
F-95.90732827217339
sI9
F79.99999999566089
sI2
F-85.94546824450495
sI5
F-84.69781985679995
sI7
F100.0
ssS'BABB0AAB0'
p1519
(dp1520
I9
F-5.0
sI5
F-5.0
ssS'00A00B0BA'
p1521
(dp1522
I1
F-32.00220446983354
sI2
F6.770288093755163
sI4
F-4.209993054956304
sI5
F79.99999999999861
sI7
F-16.42722660977131
ssS'BBA0A00B0'
p1523
(dp1524
I9
F79.99999999733468
sI4
F79.99610806404934
sI6
F80.0
sI7
F100.0
ssS'ABB00AB0A'
p1525
(dp1526
I8
F-98.57885730229907
sI4
F26.314522362660597
sI5
F100.0
ssS'ABA0BBAAB'
p1527
(dp1528
I4
F100.0
ssS'AB0B0B0AA'
p1529
(dp1530
I3
F65.13000659195436
sI5
F100.0
sI7
F99.99999987085984
ssS'BB00A0BAA'
p1531
(dp1532
I3
F-99.99999999765687
sI4
F-99.99999999765689
sI6
F-100.0
ssS'BB0AABAB0'
p1533
(dp1534
I9
F-100.0
sI3
F100.0
ssS'B0B00BAA0'
p1535
(dp1536
I9
F100.0
sI2
F79.9048323610892
sI4
F-99.99722959344567
sI5
F-99.99148977804713
ssS'BBAAABB00'
p1537
(dp1538
I8
F-5.0
sI9
F-5.0
ssS'0BB0A0A0B'
p1539
(dp1540
I8
F-99.99999999950789
sI1
F-99.99999999960444
sI4
F-99.99999995118502
sI6
F-99.90814419201874
ssS'0B0BAA0B0'
p1541
(dp1542
I7
F-60.691474161960805
sI1
F12.03522715674174
sI3
F79.06089775859851
sI9
F46.39999999872214
ssS'BB0A0BA00'
p1543
(dp1544
I8
F-85.99968323480073
sI9
F-98.20000021448627
sI3
F-79.99999464307471
sI5
F-96.58950209240928
ssS'BB0AA00BA'
p1545
(dp1546
I3
F80.0
sI6
F100.0
sI7
F42.160857910639095
ssS'B00BA000A'
p1547
(dp1548
I8
F-88.35375068807139
sI2
F-98.672990223271
sI3
F-62.19993303841916
sI6
F-94.53872977512518
sI7
F79.99997947445179
ssS'B0B0000AA'
p1549
(dp1550
I2
F79.97118609865171
sI4
F-76.74697228449958
sI5
F-99.59047446751582
sI6
F29.347590820890872
sI7
F100.0
ssS'ABBBA0A0B'
p1551
(dp1552
I8
F-100.0
sI6
F-5.0
ssS'BAB00A00B'
p1553
(dp1554
I8
F-99.9890013727832
sI4
F-96.59722657673258
sI5
F77.93611062332903
sI7
F-79.83966019274402
ssS'BAA0BBA00'
p1555
(dp1556
I8
F-99.99999999999746
sI9
F-99.99999903574776
sI4
F-98.18427730239411
ssS'0B00AABB0'
p1557
(dp1558
I1
F-95.45694777943996
sI3
F-85.25446308798149
sI4
F100.0
sI9
F80.0
ssS'BBA00BBAA'
p1559
(dp1560
I4
F-5.0
sI5
F-100.0
ssS'BB0BAAABA'
p1561
(dp1562
I3
F100.0
ssS'BB000AA0B'
p1563
(dp1564
I8
F-99.99896648875188
sI3
F-99.86953027435867
sI4
F-99.90711179676453
sI5
F-48.18740790852013
ssS'0B0A0AB0B'
p1565
(dp1566
I8
F43.373050923766655
sI1
F-47.50216584509728
sI3
F-92.26385629091186
sI5
F100.0
ssS'ABAB0BAB0'
p1567
(dp1568
I9
F-100.0
sI5
F100.0
ssS'0BA000AB0'
p1569
(dp1570
I1
F37.777319968153336
sI4
F-53.43785595588809
sI5
F100.0
sI6
F42.17163281518428
sI9
F-95.14904762315423
ssS'AABBB0A0B'
p1571
(dp1572
I8
F-100.0
sI6
F-5.0
ssS'AABABB0BA'
p1573
(dp1574
I7
F100.0
ssS'ABABAB000'
p1575
(dp1576
I8
F80.0
sI9
F100.0
sI7
F100.0
ssS'BABABAAB0'
p1577
(dp1578
I9
F-5.0
ssS'B00AA00BB'
p1579
(dp1580
I2
F-99.99693816156402
sI3
F26.000021902263413
sI6
F100.0
sI7
F79.96815567292154
ssS'BB0BAAAB0'
p1581
(dp1582
I9
F-100.0
sI3
F100.0
ssS'BB000000A'
p1583
(dp1584
I3
F73.62920791331425
sI4
F-99.95926001960093
sI5
F-99.99772176755039
sI6
F-99.65445446718681
sI7
F-99.80625329075167
sI8
F-99.99982341900278
ssS'BB0BAA0BA'
p1585
(dp1586
I3
F100.0
sI7
F-100.0
ssS'00A0B0ABB'
p1587
(dp1588
I1
F-99.99999735838425
sI2
F-99.99999397345904
sI4
F-99.99999998092657
sI6
F-99.99999999999997
ssS'ABAB0BABA'
p1589
(dp1590
I5
F100.0
ssS'000AB0B00'
p1591
(dp1592
I1
F-99.9897939885863
sI2
F-99.99685480514226
sI3
F-9.204984213875221
sI6
F-98.66531638972319
sI8
F-99.99999793423318
sI9
F-99.99999999951181
ssS'B0AB0BA00'
p1593
(dp1594
I8
F-99.99866226294017
sI9
F-99.99143505249833
sI2
F-88.25112646490001
sI5
F100.0
ssS'AABABB0B0'
p1595
(dp1596
I9
F-100.0
sI7
F100.0
ssS'B0A0A00BB'
p1597
(dp1598
I2
F-99.87959924258924
sI4
F-99.98821868054388
sI6
F-96.58625530900562
sI7
F100.0
ssS'AAB0B00BA'
p1599
(dp1600
I4
F-61.17939999999999
sI6
F-99.9999999999943
sI7
F-3.999999999813973
ssS'B0000AAB0'
p1601
(dp1602
I9
F33.33948711006219
sI2
F-8.68966593784446
sI3
F69.91950371638163
sI4
F-64.65715123323699
sI5
F31.662404364003258
ssS'A0AB0BBA0'
p1603
(dp1604
I9
F-57.77491927242375
sI2
F100.0
sI5
F79.9999999999774
ssS'AB0BAAB00'
p1605
(dp1606
I8
F-3.9999997144189177
sI9
F100.0
sI3
F1.3052078968183487
ssS'ABAB0B0A0'
p1607
(dp1608
I9
F-49.76649999999999
sI5
F80.0
sI7
F-99.69306003937
ssS'BB0ABA00A'
p1609
(dp1610
I8
F-46.036070180064996
sI3
F100.0
sI7
F-99.99999998837738
ssS'ABBA0B0BA'
p1611
(dp1612
I5
F100.0
sI7
F100.0
ssS'BBAA0A0B0'
p1613
(dp1614
I9
F99.999822853
sI5
F100.0
sI7
F-60.83642787069708
ssS'BABABB0A0'
p1615
(dp1616
I9
F-100.0
sI7
F-100.0
ssS'BBABBAA00'
p1617
(dp1618
I8
F-100.0
sI9
F100.0
ssS'0B0A000BA'
p1619
(dp1620
I1
F29.74732097215262
sI3
F-49.52167909128259
sI5
F80.0
sI6
F38.66214259096375
sI7
F33.84646915343349
ssS'BABBBA0A0'
p1621
(dp1622
I9
F-100.0
sI7
F-100.0
ssS'00AB0A0B0'
p1623
(dp1624
I1
F79.26607479696841
sI2
F79.99999999883319
sI7
F79.9999999276815
sI5
F48.93317035860764
sI9
F100.0
ssS'B00A00AB0'
p1625
(dp1626
I9
F-58.656113761552376
sI2
F-45.55228645792056
sI3
F-78.97987321106052
sI5
F74.75839156409715
sI6
F-55.388518729177534
ssS'B00BA00BA'
p1627
(dp1628
I2
F-93.94935121253066
sI3
F-99.9999111272388
sI6
F-98.73999999999882
sI7
F-4.003114532799214
ssS'BBAAAB00B'
p1629
(dp1630
I8
F-5.0
sI7
F100.0
ssS'000AB0A0B'
p1631
(dp1632
I8
F-95.57739999812362
sI1
F100.0
sI2
F-99.99554649679573
sI3
F-99.99999397210911
sI6
F-99.96417687755964
ssS'BB0A0AAB0'
p1633
(dp1634
I9
F-99.97813
sI3
F38.47889220559999
sI5
F100.0
ssS'BABB0AA0B'
p1635
(dp1636
I8
F-100.0
sI5
F-5.0
ssS'0A00BB0AB'
p1637
(dp1638
I1
F-98.73172704944989
sI3
F-99.98121523815617
sI4
F-99.8865903272856
sI7
F-99.99999999999997
ssS'BB00B0AA0'
p1639
(dp1640
I9
F100.0
sI3
F-88.65876314225328
sI4
F-99.99751972562893
sI6
F-62.16221452872831
ssS'ABBBAA0B0'
p1641
(dp1642
I9
F100.0
sI7
F-5.0
ssS'A0B00B0A0'
p1643
(dp1644
I9
F69.91999495827815
sI2
F-99.91484701645963
sI4
F-99.68941844584442
sI5
F-99.90784816789488
sI7
F-98.85355244332081
ssS'AB0A00B0B'
p1645
(dp1646
I8
F-75.16969840663623
sI3
F-99.99974826932149
sI5
F-99.99999911251894
sI6
F-99.99990219082771
ssS'0BB00ABA0'
p1647
(dp1648
I1
F-97.63743085326107
sI4
F-98.95158703959497
sI5
F-98.9009797646843
sI9
F-98.59229389363179
ssS'BB00AA0BA'
p1649
(dp1650
I3
F100.0
sI4
F100.0
sI7
F-62.19720359195475
ssS'ABB0ABBA0'
p1651
(dp1652
I9
F100.0
sI4
F-100.0
ssS'B0BA000BA'
p1653
(dp1654
I2
F-75.02763414928971
sI5
F-88.60335630780314
sI6
F-99.31458884474115
sI7
F-91.52329933001865
ssS'B000BAB0A'
p1655
(dp1656
I8
F-99.99999927702046
sI2
F-99.99999983236214
sI3
F100.0
sI4
F-99.92912076022715
ssS'00ABB000A'
p1657
(dp1658
I8
F-88.56792279476929
sI1
F-61.89359625235478
sI2
F-98.9791707638201
sI6
F100.0
sI7
F-88.65997990581876
ssS'B00AB0B0A'
p1659
(dp1660
I8
F-99.99998917246141
sI2
F-99.07316910557634
sI3
F-3.9999999240640896
sI6
F-96.59666176897132
ssS'BBAA0BA0B'
p1661
(dp1662
I8
F-100.0
sI5
F100.0
ssS'BAB000A00'
p1663
(dp1664
I8
F-31.394899238621676
sI9
F-2.7282050306961523
sI4
F-78.4752437535831
sI5
F55.442813000202555
sI6
F-16.317343061929243
ssS'ABBBBA0A0'
p1665
(dp1666
I9
F-100.0
sI7
F-5.0
ssS'ABAAABB0B'
p1667
(dp1668
I8
F-5.0
ssS'0AB0B0ABA'
p1669
(dp1670
I1
F-3.999864588832613
sI4
F54.814017173515296
sI6
F-4.0
ssS'BA0B0AA0B'
p1671
(dp1672
I8
F-96.50357105397418
sI3
F-95.27038109701493
sI5
F80.0
ssS'BAB0BBA0A'
p1673
(dp1674
I8
F100.0
sI4
F-5.0
ssS'BBAA0000B'
p1675
(dp1676
I8
F-99.95044568801364
sI5
F78.41124263959986
sI6
F-88.65893877534411
sI7
F-96.2640126554027
ssS'0ABBAB00A'
p1677
(dp1678
I8
F100.0
sI1
F99.9999999996862
sI7
F80.0
ssS'BA00BB0AA'
p1679
(dp1680
I3
F-99.82063375991434
sI4
F-2.408193994673604
sI7
F100.0
ssS'ABA0B000B'
p1681
(dp1682
I8
F-57.200408453446045
sI4
F-98.60137810335704
sI6
F-98.18547999290618
sI7
F-95.79999998131242
ssS'BABAA00BB'
p1683
(dp1684
I6
F100.0
sI7
F-100.0
ssS'00BA0A0B0'
p1685
(dp1686
I1
F46.623229352686934
sI2
F76.82555778493875
sI7
F79.99999469753388
sI5
F100.0
sI9
F-32.81347662616429
ssS'0ABAB0AB0'
p1687
(dp1688
I1
F100.0
sI6
F-3.5105129027748836
sI9
F-3.380835714342017
ssS'ABABAB0AB'
p1689
(dp1690
I7
F100.0
ssS'AB000BAAB'
p1691
(dp1692
I3
F80.0
sI4
F100.0
sI5
F26.425611048500386
ssS'B0BABA0A0'
p1693
(dp1694
I9
F-100.0
sI2
F-100.0
sI7
F-100.0
ssS'00BB0ABA0'
p1695
(dp1696
I1
F-99.99555529508015
sI2
F-99.99997809363204
sI5
F26.002480060408104
sI9
F-99.99693819392438
ssS'AB00BBA00'
p1697
(dp1698
I8
F37.765616532387156
sI9
F-98.97908793662762
sI3
F-87.60929671973341
sI4
F100.0
ssS'ABB00A0BA'
p1699
(dp1700
I4
F-58.761432908037094
sI5
F100.0
sI7
F-98.58039081373661
ssS'B0B00A0A0'
p1701
(dp1702
I9
F-98.97917679473142
sI2
F-79.9976973381989
sI4
F-85.96597743568952
sI5
F-96.4327417203371
sI7
F-99.99987952918441
ssS'00B0ABB0A'
p1703
(dp1704
I8
F79.09213865119997
sI1
F100.0
sI2
F79.85164633554305
sI4
F-5.600912266222152
ssS'0B0A0A0BB'
p1705
(dp1706
I1
F-84.11791478656909
sI3
F-99.90236017390482
sI5
F100.0
sI7
F-84.22566323735674
ssS'BBAA00000'
p1707
(dp1708
I8
F50.80624279767552
sI9
F64.30239264203925
sI5
F4.578751663104786
sI6
F42.69668277610113
sI7
F-76.92874140116486
ssS'BB0B0AA00'
p1709
(dp1710
I8
F-99.87950146114864
sI9
F-99.9892261969871
sI3
F76.97599999996837
sI5
F-96.58619792044556
ssS'BA0B00000'
p1711
(dp1712
I3
F-99.99972443798951
sI5
F-99.81978005594337
sI6
F-99.98975644446985
sI7
F-75.93570853409582
sI8
F-99.99999968584555
sI9
F-93.7640734071347
ssS'000A0000B'
p1713
(dp1714
I1
F-61.53831043633488
sI2
F-64.40330847125416
sI3
F-68.20911281143603
sI5
F-63.353190402967435
sI6
F-62.69393131659618
sI7
F63.679446018911655
sI8
F-63.46160047806672
ssS'00B00B00A'
p1715
(dp1716
I1
F-76.64794727486483
sI2
F-78.4379242382566
sI4
F-73.17384452674831
sI5
F-50.1208505303408
sI7
F13.177586760649483
sI8
F67.35991680861929
ssS'BB000AAAB'
p1717
(dp1718
I3
F-99.99991278672928
sI4
F-99.99999999651321
sI5
F-88.65977677881654
ssS'B00B00ABA'
p1719
(dp1720
I2
F-57.20105817053296
sI3
F79.999940478608
sI5
F1.392516579369767
sI6
F-19.994849048289034
ssS'B0B0AA0BA'
p1721
(dp1722
I2
F-2.3983736822004333
sI4
F100.0
sI7
F-99.83670399993447
ssS'ABBAAB000'
p1723
(dp1724
I8
F-99.65696017919281
sI9
F99.99999999999153
sI7
F100.0
ssS'ABB0AAB0B'
p1725
(dp1726
I8
F-5.0
sI4
F100.0
ssS'00BBAA000'
p1727
(dp1728
I8
F-3.1990971729432167
sI1
F-3.1195027013385617
sI2
F7.2318647585479985
sI7
F-3.2327991389268314
sI9
F-79.9730625351184
ssS'0A0ABB0AB'
p1729
(dp1730
I1
F-98.97939999988135
sI3
F-98.97939999856338
sI7
F-100.0
ssS'0B0A0BB0A'
p1731
(dp1732
I8
F-79.99650954783306
sI1
F-79.99999951670517
sI3
F-4.000002565150687
sI5
F-57.63194545220477
ssS'000BB00AA'
p1733
(dp1734
I1
F-96.59798118607836
sI2
F-99.97244378185798
sI3
F-61.89381320305023
sI6
F76.70385535121224
sI7
F100.0
ssS'BB000AABA'
p1735
(dp1736
I3
F100.0
sI4
F-99.993439
sI5
F-88.621468893811
ssS'AB0A0B0B0'
p1737
(dp1738
I9
F-98.64126945904694
sI3
F-94.0000562062682
sI5
F79.99999999999974
sI7
F100.0
ssS'BB0B0AABA'
p1739
(dp1740
I3
F100.0
sI5
F-100.0
ssS'00B0000BA'
p1741
(dp1742
I1
F-68.42310925495019
sI2
F-3.4091775019762065
sI4
F-58.78021731118525
sI5
F-19.599082524828418
sI6
F-76.4506379432794
sI7
F-79.83267229919525
ssS'BA00ABA0B'
p1743
(dp1744
I8
F99.99999999999153
sI3
F100.0
sI4
F-84.95179750625749
ssS'ABB0AAB00'
p1745
(dp1746
I8
F80.0
sI9
F100.0
sI4
F100.0
ssS'ABA0AB0BB'
p1747
(dp1748
I4
F-100.0
sI7
F100.0
ssS'ABB0A0B00'
p1749
(dp1750
I8
F-51.90799889669255
sI9
F100.0
sI4
F46.39999839292241
sI6
F79.99849517830992
ssS'A00BBAB0A'
p1751
(dp1752
I8
F-99.99993122551797
sI2
F-99.9070915640738
sI3
F100.0
ssS'AB00B0AAB'
p1753
(dp1754
I3
F54.800002835166225
sI4
F100.0
sI6
F2.9224652001845612
ssS'0B00BBAA0'
p1755
(dp1756
I1
F-98.61128195483097
sI3
F-98.73925504461634
sI4
F69.9193386078089
sI9
F100.0
ssS'A00AB0B0B'
p1757
(dp1758
I8
F-78.56438481999994
sI2
F-100.0
sI3
F-99.87163991544838
sI6
F-99.99999999457609
ssS'BB0B0AA0A'
p1759
(dp1760
I8
F99.99999987085984
sI3
F100.0
sI5
F-95.1452488
ssS'BAB0AABBA'
p1761
(dp1762
I4
F100.0
ssS'AB00AB0AB'
p1763
(dp1764
I3
F13.641166994973176
sI4
F-99.98530230654589
sI7
F-98.97910797604125
ssS'0BABABBA0'
p1765
(dp1766
I1
F-5.0
sI9
F-100.0
ssS'BAB00B0A0'
p1767
(dp1768
I9
F79.99999999999974
sI4
F-88.65960104496727
sI5
F100.0
sI7
F37.646506231591175
ssS'BAAABBB0A'
p1769
(dp1770
I8
F-5.0
ssS'0000BB0A0'
p1771
(dp1772
I1
F-99.99903632793884
sI2
F-99.88345967647653
sI3
F-98.17048447561498
sI4
F-79.56454400258943
sI7
F-98.73991687657538
sI9
F-99.69133813403772
ssS'BA00A000B'
p1773
(dp1774
I8
F100.0
sI3
F-31.950685754976803
sI4
F79.88659534472735
sI6
F79.90927821435824
sI7
F79.66475611252673
ssS'0B0A0B0A0'
p1775
(dp1776
I7
F79.9088075271079
sI1
F-2.5812255030532105
sI3
F-1.510508526527146
sI5
F-69.84662769148831
sI9
F-2.4900128354506808
ssS'0BAA0BABB'
p1777
(dp1778
I1
F100.0
sI5
F100.0
ssS'AABA0BBB0'
p1779
(dp1780
I9
F-100.0
sI5
F-100.0
ssS'AAB0B000B'
p1781
(dp1782
I8
F-100.0
sI4
F-100.0
sI6
F-99.83229462960057
sI7
F-99.6937999115302
ssS'BABAA00B0'
p1783
(dp1784
I9
F-3.9859829787796177
sI6
F100.0
sI7
F-3.9984951783436915
ssS'B00BA0A00'
p1785
(dp1786
I8
F69.97763058178157
sI9
F21.760058286290736
sI2
F21.784004355223587
sI3
F100.0
sI6
F1.4219832944230166
ssS'BBAA0AABB'
p1787
(dp1788
I5
F100.0
ssS'BB00AA0B0'
p1789
(dp1790
I9
F-99.9078417548308
sI3
F80.0
sI4
F100.0
sI7
F-99.9999798418441
ssS'0B0AABABB'
p1791
(dp1792
I1
F100.0
sI3
F100.0
ssS'A0B0B00A0'
p1793
(dp1794
I9
F-96.59799977382373
sI2
F-99.99666209417171
sI4
F-99.60196564078973
sI6
F-99.97347387776041
sI7
F79.90923467715419
ssS'A0BBAA00B'
p1795
(dp1796
I8
F-3.9999999993782795
sI2
F-3.8571151494501703
sI7
F-4.0
ssS'ABBABB0A0'
p1797
(dp1798
I9
F-100.0
sI7
F100.0
ssS'BB000ABA0'
p1799
(dp1800
I9
F-99.99743113333692
sI3
F-99.99832995361032
sI4
F-99.50609513160235
sI5
F-98.97939812802825
ssS'AB0000BAB'
p1801
(dp1802
I3
F-4.0
sI4
F-62.603599770200965
sI5
F-4.000000229008556
sI6
F-4.03912521519617
ssS'B0A000BA0'
p1803
(dp1804
I9
F-96.59799995118172
sI2
F-98.48102004871069
sI4
F56.50017748575651
sI5
F-99.71948468789368
sI6
F-99.88646765300219
ssS'BBAA00A0B'
p1805
(dp1806
I8
F-98.8507496403022
sI5
F100.0
sI6
F-47.02159586722564
ssS'BABAB0A00'
p1807
(dp1808
I8
F-99.9999797488136
sI9
F14.15914604371573
sI6
F-99.99960319072
ssS'B0BB0AAA0'
p1809
(dp1810
I9
F100.0
sI2
F80.0
sI5
F-98.97684624774173
ssS'ABAABAB0B'
p1811
(dp1812
I8
F-5.0
ssS'ABAAABBB0'
p1813
(dp1814
I9
F100.0
ssS'BA0BBA0BA'
p1815
(dp1816
I3
F100.0
sI7
F-5.0
ssS'BBABB0A0A'
p1817
(dp1818
I8
F100.0
sI6
F100.0
ssS'0A0A0BB0B'
p1819
(dp1820
I8
F-99.97233220857207
sI1
F-99.65544987018113
sI3
F-99.69279747079916
sI5
F-99.5872336223131
ssS'BAB0000A0'
p1821
(dp1822
I9
F79.99999942837742
sI4
F71.57525866202481
sI5
F100.0
sI6
F-35.85878327300301
sI7
F69.70224687221257
ssS'0AB0000AB'
p1823
(dp1824
I1
F-83.81959288734635
sI4
F-99.92809975832847
sI5
F100.0
sI6
F-32.00012361463874
sI7
F-98.61793471292152
ssS'0A00ABB00'
p1825
(dp1826
I8
F100.0
sI1
F79.99999999999996
sI3
F79.97819507640718
sI4
F-0.29398214342553297
sI9
F79.99999844045999
ssS'000A0B000'
p1827
(dp1828
I1
F-43.53335236880222
sI2
F-25.644285907332776
sI3
F15.940293332317463
sI5
F-7.317826836978002
sI7
F-37.806824925748096
sI8
F-43.86141298847543
sI9
F-5.087100171662401
ssS'A0A0B0B0B'
p1829
(dp1830
I8
F15.228757368107765
sI2
F100.0
sI4
F-99.9955909828253
sI6
F-99.9992202549514
ssS'B0AABBB0A'
p1831
(dp1832
I8
F-5.0
sI2
F-5.0
ssS'B000BBA0A'
p1833
(dp1834
I8
F100.0
sI2
F26.000000207189387
sI3
F-99.98726273681585
sI4
F-3.523750630106366
ssS'AB0A0BB0A'
p1835
(dp1836
I8
F-3.944265612264652
sI3
F62.31313775687401
sI5
F100.0
ssS'0A0BAABB0'
p1837
(dp1838
I1
F-99.99999999868103
sI3
F-99.99999999999999
sI9
F-99.99903277738
ssS'BB00AA000'
p1839
(dp1840
I8
F-61.80113278632683
sI9
F65.07104377977537
sI3
F79.99999999999997
sI4
F100.0
sI7
F-99.62968790318483
ssS'AB0B0A00B'
p1841
(dp1842
I8
F-4.0
sI3
F-79.99648041388554
sI5
F-57.20031414873326
sI7
F-8.789075408276227
ssS'ABB000AB0'
p1843
(dp1844
I9
F-84.82797448569661
sI4
F100.0
sI5
F79.99999062333053
sI6
F-95.45159052817212
ssS'00BA0AB00'
p1845
(dp1846
I8
F-59.58816552619378
sI1
F-46.0371040213049
sI2
F41.17716595399858
sI5
F100.0
sI9
F-46.100129038877526
ssS'00BABB0AA'
p1847
(dp1848
I1
F-61.076730685543296
sI2
F-95.570839
sI7
F100.0
ssS'BABBA0A00'
p1849
(dp1850
I8
F100.0
sI9
F1.3048599120924393
sI6
F-3.957134792979751
ssS'0AB0ABB00'
p1851
(dp1852
I8
F100.0
sI1
F-62.10559214103823
sI4
F-99.90792270018346
sI9
F79.95678759164012
ssS'BAAB0BAAB'
p1853
(dp1854
I5
F100.0
ssS'0B000A000'
p1855
(dp1856
I1
F-1.027365330990908
sI3
F75.47946796223697
sI4
F-47.38296158239718
sI5
F-55.55963331554674
sI7
F-25.635357369572105
sI8
F10.87862235415844
sI9
F5.883796234944462
ssS'BA00ABABB'
p1857
(dp1858
I3
F100.0
sI4
F-100.0
ssS'0B000ABAB'
p1859
(dp1860
I1
F-61.98841092798
sI3
F-79.9998656199213
sI4
F-79.99905698225784
sI5
F38.88296860101264
ssS'0AB00BABA'
p1861
(dp1862
I1
F80.0
sI4
F15.240459658720326
sI5
F72.48297031194258
ssS'0B00ABA00'
p1863
(dp1864
I8
F79.99772936911914
sI1
F79.99995273329448
sI3
F100.0
sI4
F48.275378399912
sI9
F79.99999999982423
ssS'AABAB000B'
p1865
(dp1866
I8
F-100.0
sI6
F-99.99999999996112
sI7
F100.0
ssS'BB0A0A000'
p1867
(dp1868
I8
F29.433677048522327
sI9
F-49.402002824202825
sI3
F79.99572956977022
sI5
F100.0
sI7
F-97.53749742751391
ssS'0AABBAB0B'
p1869
(dp1870
I8
F-100.0
sI1
F100.0
ssS'BB0A0A0BA'
p1871
(dp1872
I3
F100.0
sI5
F99.993439
sI7
F-99.99994685589999
ssS'0B00ABAB0'
p1873
(dp1874
I1
F80.0
sI3
F100.0
sI4
F79.09279838898473
sI9
F79.99999999999993
ssS'AA0BBAB0B'
p1875
(dp1876
I8
F-100.0
sI3
F100.0
ssS'0BBA000BA'
p1877
(dp1878
I1
F26.00000004882574
sI5
F-99.99751989314818
sI6
F-99.99999945720089
sI7
F-99.99173313998837
ssS'AABAB00B0'
p1879
(dp1880
I9
F26.00000603148392
sI6
F-99.96417638240234
sI7
F100.0
ssS'BBA000A0B'
p1881
(dp1882
I8
F26.11972233148697
sI4
F-88.62348931213643
sI5
F100.0
sI6
F-98.6368282060491
ssS'ABBB0AA00'
p1883
(dp1884
I8
F13.640139322674763
sI9
F80.0
sI5
F60.0932626425207
ssS'0BAA0B00B'
p1885
(dp1886
I8
F-57.2000000206303
sI1
F-20.100519000088894
sI5
F-53.38205345915723
sI7
F79.99933860390078
ssS'BB00BAAA0'
p1887
(dp1888
I9
F100.0
sI3
F-98.97939397210547
sI4
F-100.0
ssS'0ABA0BBA0'
p1889
(dp1890
I1
F-99.97813
sI5
F100.0
sI9
F-95.5045
ssS'BA00AABB0'
p1891
(dp1892
I9
F-58.7053147376142
sI3
F-99.99999999997175
sI4
F100.0
ssS'AABBA000B'
p1893
(dp1894
I8
F100.0
sI6
F2.8925002592844606
sI7
F-99.83630719071999
ssS'ABB000BA0'
p1895
(dp1896
I9
F-99.97237624664223
sI4
F-95.79999998191909
sI5
F-57.52656325694022
sI6
F-99.45566928614944
ssS'ABA0BB0AB'
p1897
(dp1898
I4
F-5.0
sI7
F-100.0
ssS'B000BA00A'
p1899
(dp1900
I8
F-31.984099413462047
sI2
F-55.87236228681921
sI3
F100.0
sI4
F-75.96958443718087
sI7
F79.99999999998735
ssS'0BA00000B'
p1901
(dp1902
I1
F-79.88620755214326
sI4
F-79.97494852521702
sI5
F-75.86991849427014
sI6
F-78.90457761191836
sI7
F-76.81088077677342
sI8
F-3.3034296062127977
ssS'BBABA000A'
p1903
(dp1904
I8
F64.82389893506118
sI6
F100.0
sI7
F100.0
ssS'BA00AA0BB'
p1905
(dp1906
I3
F-95.15173663452349
sI4
F100.0
sI7
F80.0
ssS'BABAABAB0'
p1907
(dp1908
I9
F-5.0
ssS'BABAB00A0'
p1909
(dp1910
I9
F-99.99999929472953
sI6
F-100.0
sI7
F64.91248192432757
ssS'0ABB000A0'
p1911
(dp1912
I1
F2.9082461266297486
sI7
F80.0
sI5
F100.0
sI6
F14.067219262563398
sI9
F79.99820929348732
ssS'AB00B0A0B'
p1913
(dp1914
I8
F60.09171642346009
sI3
F-98.73999316621048
sI4
F100.0
sI6
F-99.90814502092115
ssS'0AA0BBAB0'
p1915
(dp1916
I1
F100.0
sI4
F-3.999999922015164
sI9
F-32.7996022232158
ssS'0000BA0BA'
p1917
(dp1918
I1
F-99.99555192962717
sI2
F-2.7359771388609513
sI3
F100.0
sI4
F-96.59799994930663
sI7
F-99.98518088786642
ssS'BBAA00B0A'
p1919
(dp1920
I8
F-2.2565429027044255
sI5
F-2.395638269717503
sI6
F100.0
ssS'B0B0BA0AA'
p1921
(dp1922
I2
F-87.33217743746602
sI4
F-99.99999998837738
sI7
F100.0
ssS'0ABAB00B0'
p1923
(dp1924
I1
F-61.87919847601874
sI7
F13.209079993820389
sI6
F-98.21418885676415
sI9
F-98.16865108445802
ssS'00AB000B0'
p1925
(dp1926
I1
F49.62502228358826
sI2
F-63.90332213326235
sI5
F-77.06403365985707
sI6
F-55.83355492277624
sI7
F-67.24477290175325
sI9
F-66.17097337367983
ssS'0B0BA0AB0'
p1927
(dp1928
I1
F79.99614128828426
sI3
F100.0
sI6
F-4.049957098179673
sI9
F79.72783839175085
ssS'BA00ABAB0'
p1929
(dp1930
I9
F-2.412368751213709
sI3
F100.0
sI4
F-3.5225589834984508
ssS'ABAABB000'
p1931
(dp1932
I8
F-3.5198621015808675
sI9
F-98.18559863287005
sI7
F100.0
ssS'0BA0000B0'
p1933
(dp1934
I1
F-99.8296942915739
sI4
F-99.70049927407068
sI5
F54.92159566878476
sI6
F-99.99999395781416
sI7
F-88.56792272964012
sI9
F-99.99999997542211
ssS'AA0BAB0BB'
p1935
(dp1936
I3
F100.0
sI7
F-100.0
ssS'BB000A0BA'
p1937
(dp1938
I3
F100.0
sI4
F-98.55374282338342
sI5
F42.19173133086579
sI7
F30.525954741224112
ssS'0A000000B'
p1939
(dp1940
I1
F-73.52409600602141
sI3
F74.70780002776023
sI4
F-0.3173233472823256
sI5
F-23.53677011162369
sI6
F-19.279215456495983
sI7
F-21.082299209231486
sI8
F-63.57298328295283
ssS'00BAABBA0'
p1941
(dp1942
I1
F-99.99999813881861
sI2
F100.0
sI9
F80.0
ssS'ABBBAA000'
p1943
(dp1944
I8
F-3.9869955762227036
sI9
F100.0
sI7
F-3.956787591878001
ssS'BBAA000B0'
p1945
(dp1946
I9
F-96.78506938298995
sI5
F79.85560197887563
sI6
F-99.59043963171837
sI7
F-58.795517571264796
ssS'BAB000ABA'
p1947
(dp1948
I4
F-4.0
sI5
F-4.0
sI6
F-4.0
ssS'AA0B0BAB0'
p1949
(dp1950
I9
F-84.23708916361346
sI3
F100.0
sI5
F79.99999999070191
ssS'BBAABA000'
p1951
(dp1952
I8
F-98.5518415
sI9
F100.0
sI7
F-99.99994685589999
ssS'ABB000ABA'
p1953
(dp1954
I4
F100.0
sI5
F100.0
sI6
F-99.8795475696466
ssS'AB0B0A000'
p1955
(dp1956
I8
F1.0365336168223696
sI9
F79.99977910628262
sI3
F-16.53810794126233
sI5
F0.9843920752857773
sI7
F-15.948516587706639
ssS'B0BB0AA0A'
p1957
(dp1958
I8
F100.0
sI2
F74.18730559104851
sI5
F-98.18548095486652
ssS'AB00A0ABB'
p1959
(dp1960
I3
F100.0
sI4
F100.0
sI6
F80.0
ssS'ABAB0BAAB'
p1961
(dp1962
I5
F100.0
ssS'B00AB00BA'
p1963
(dp1964
I2
F-4.431234141237859
sI3
F-99.60052413898653
sI6
F-99.62077879645013
sI7
F-98.17049165669188
ssS'000A0BBBA'
p1965
(dp1966
I1
F-79.91749210074742
sI2
F-4.180835017809897
sI3
F-4.011634860777839
sI5
F-3.999990625196227
ssS'BA0AAB00B'
p1967
(dp1968
I8
F100.0
sI3
F80.0
sI7
F-99.99999396906568
ssS'BA00000BA'
p1969
(dp1970
I3
F-3.197537107301536
sI4
F-3.192969779103892
sI5
F-3.499120319084339
sI6
F-3.1949846478646435
sI7
F-3.199074111218351
ssS'000BA000B'
p1971
(dp1972
I1
F-61.787049990740094
sI2
F-61.553170388696905
sI3
F-55.46846121469821
sI6
F-68.07520138983962
sI7
F-56.83358089953571
sI8
F4.6667228652351245
ssS'BB00AABBA'
p1973
(dp1974
I3
F100.0
sI4
F100.0
ssS'A000BBAB0'
p1975
(dp1976
I9
F-99.58033289543778
sI2
F-61.1427374943497
sI3
F-99.99903091617381
sI4
F100.0
ssS'AB0BAA00B'
p1977
(dp1978
I8
F-4.0
sI3
F2.879704171337071
sI7
F13.640000851165048
ssS'B0BA0BBAA'
p1979
(dp1980
I2
F-100.0
sI5
F-100.0
ssS'A0ABAB0BB'
p1981
(dp1982
I2
F100.0
sI7
F100.0
ssS'0BA00BA00'
p1983
(dp1984
I8
F67.63950117415595
sI1
F69.6017123554866
sI4
F60.47280340222048
sI5
F100.0
sI9
F79.99932797242825
ssS'AB0AB0B00'
p1985
(dp1986
I8
F-32.74968818474623
sI9
F-99.98887478860908
sI3
F-99.98032783944055
sI6
F-99.88651725142381
ssS'BBABA0000'
p1987
(dp1988
I8
F-99.89987885247609
sI9
F-96.59797739156195
sI6
F-98.67073758582966
sI7
F100.0
ssS'BAB0A0A0B'
p1989
(dp1990
I8
F100.0
sI4
F29.40450068885849
sI6
F80.0
ssS'AA00BB0B0'
p1991
(dp1992
I9
F-99.99872090569016
sI3
F100.0
sI4
F46.39999839292241
sI7
F-98.57205651502805
ssS'BA0A0B000'
p1993
(dp1994
I8
F-55.34689607831149
sI9
F-3.194674033436751
sI3
F-56.96032489027295
sI5
F-3.1890470916324825
sI7
F-4.7179456535144055
ssS'0B0AB0BAA'
p1995
(dp1996
I1
F-73.77594486276362
sI3
F-3.9999999999833933
sI6
F-99.90790214755185
ssS'AAB0B00AB'
p1997
(dp1998
I4
F-100.0
sI6
F-99.98530005671901
sI7
F-99.98518110306082
ssS'BBAAABBA0'
p1999
(dp2000
I9
F-5.0
ssS'0B0BBA0AA'
p2001
(dp2002
I1
F80.0
sI3
F99.99999999651321
sI7
F100.0
ssS'BA0B0A000'
p2003
(dp2004
I8
F-96.70339588350377
sI9
F-96.5449980294197
sI3
F-99.68645947069265
sI5
F-99.97663891575674
sI7
F62.96478156102252
ssS'ABBAABB00'
p2005
(dp2006
I8
F-100.0
sI9
F100.0
ssS'BB00AAB00'
p2007
(dp2008
I8
F-99.90717258811073
sI9
F-99.98915995608039
sI3
F-98.95182136062834
sI4
F100.0
ssS'B0BBABA0A'
p2009
(dp2010
I8
F100.0
sI2
F-5.0
ssS'BA0BBA000'
p2011
(dp2012
I8
F-99.99999999999997
sI9
F-99.9999999999983
sI3
F-99.9999999996046
sI7
F-99.99999999999947
ssS'A00000B0B'
p2013
(dp2014
I2
F-88.65999951487579
sI3
F-99.99999999554257
sI4
F-99.98869059755552
sI5
F-97.71678392148951
sI6
F-99.99999233079966
sI8
F-79.99999909526194
ssS'A000BBBA0'
p2015
(dp2016
I9
F-99.96589645317006
sI2
F-99.9656889944625
sI3
F-79.53375279657698
sI4
F-99.93400677702203
ssS'BBA0A0BAB'
p2017
(dp2018
I4
F-5.0
sI6
F-100.0
ssS'ABAB00ABB'
p2019
(dp2020
I5
F100.0
sI6
F-100.0
ssS'B00BA0AB0'
p2021
(dp2022
I9
F-4.326714532016483
sI2
F56.434354323564904
sI3
F100.0
sI6
F-73.71994284972193
ssS'AABA0BB00'
p2023
(dp2024
I8
F-99.99999999999923
sI9
F-99.99999999988138
sI5
F-99.99999999999903
ssS'BAA000BB0'
p2025
(dp2026
I9
F-99.99370594445308
sI4
F-99.98381818721076
sI5
F-99.96188975066836
sI6
F27.020749646257784
ssS'AABBAAB0B'
p2027
(dp2028
I8
F100.0
ssS'B00ABA0B0'
p2029
(dp2030
I9
F-99.97119052761526
sI2
F-99.98978337119725
sI3
F-99.9657336862175
sI7
F-99.98551083916051
ssS'0A00ABBB0'
p2031
(dp2032
I1
F-99.99997991153019
sI3
F-99.99741717948245
sI4
F-79.8386773024
sI9
F-8.645124204373175
ssS'00A00BAB0'
p2033
(dp2034
I1
F79.9999999998242
sI2
F38.45187124682182
sI4
F79.99923320305015
sI5
F100.0
sI9
F68.3208426985307
ssS'0BB000BAA'
p2035
(dp2036
I1
F-99.9999793155335
sI4
F-99.99999255982479
sI5
F-99.99998922209869
sI6
F-98.36199979911135
ssS'0B0AB000A'
p2037
(dp2038
I8
F-3.157542129017395
sI1
F-99.99999999999997
sI3
F-99.95060295967889
sI6
F-99.99693075942965
sI7
F-99.99999983584668
ssS'B0A0BAAB0'
p2039
(dp2040
I9
F100.0
sI2
F64.83141454914224
sI4
F-99.999822853
ssS'AAB0B00B0'
p2041
(dp2042
I9
F-99.99999979848035
sI4
F-88.65970324792647
sI6
F-99.98490558413033
sI7
F1.3348654469269814
ssS'BA000BA00'
p2043
(dp2044
I8
F-32.70045442005829
sI9
F-3.1961041564501063
sI3
F-65.08444236092849
sI4
F-70.06235933463441
sI5
F-48.7463747195526
ssS'0BBAABA00'
p2045
(dp2046
I8
F-100.0
sI1
F100.0
sI9
F-99.69381999986933
ssS'BB0A00A0B'
p2047
(dp2048
I8
F-99.57774913915337
sI3
F-88.56733485659001
sI5
F-99.90708906653393
sI6
F-98.97843092060245
ssS'B0B00ABA0'
p2049
(dp2050
I9
F-99.99999999999997
sI2
F26.002711146549174
sI4
F-99.89987712049543
sI5
F-99.9071051771962
ssS'0AB0B00A0'
p2051
(dp2052
I1
F-99.99999999995606
sI7
F-79.98810549922291
sI4
F-99.84832558189787
sI6
F-99.99997280532199
sI9
F-96.50344273626598
ssS'B00000000'
p2053
(dp2054
I2
F-45.75868796301978
sI3
F-64.8620220500098
sI4
F-66.91872642560847
sI5
F2.719633952552148
sI6
F-63.807421908652984
sI7
F-50.01836479240916
sI8
F-63.90440162218822
sI9
F-63.99410862581633
ssS'BA000BA0B'
p2055
(dp2056
I8
F-99.96417687518675
sI3
F-99.88098491052799
sI4
F-99.88559812174002
sI5
F-99.96410138824554
ssS'BAAA0B00B'
p2057
(dp2058
I8
F-96.50583388796687
sI5
F80.0
sI7
F-88.5402990229724
ssS'BB0ABB0AA'
p2059
(dp2060
I3
F-5.0
sI7
F100.0
ssS'000A00B0B'
p2061
(dp2062
I1
F-85.722834285542
sI2
F-99.99997513914414
sI3
F-99.9969340335025
sI5
F-99.99090635274212
sI6
F-99.9716997822046
sI8
F-71.34914433080749
ssS'ABAB00A0B'
p2063
(dp2064
I8
F1.334865222786977
sI5
F100.0
sI6
F1.3102540889665342
ssS'BABBA0ABA'
p2065
(dp2066
I6
F-5.0
ssS'B0AA0AB0B'
p2067
(dp2068
I8
F-83.92295170510928
sI2
F-99.99999999990585
sI5
F100.0
ssS'BABA00BA0'
p2069
(dp2070
I9
F-62.19999818749014
sI5
F100.0
sI6
F-88.52986643238515
ssS'000B0A0B0'
p2071
(dp2072
I1
F-65.06481587302325
sI2
F-79.99950697116257
sI3
F-64.84708296783127
sI5
F-64.70083981185795
sI7
F-71.16058595297855
sI9
F-45.07395397533389
ssS'AB00B0B0A'
p2073
(dp2074
I8
F-99.99999999998681
sI3
F-99.99999999998681
sI4
F-99.99999999999842
sI6
F-99.99999999996442
ssS'0BAABBBA0'
p2075
(dp2076
I1
F-5.0
sI9
F-5.0
ssS'ABAB00AB0'
p2077
(dp2078
I9
F-96.59799140705452
sI5
F100.0
sI6
F76.16091261016852
ssS'AB0B0A0B0'
p2079
(dp2080
I9
F-99.99925598259998
sI3
F-99.99145703561132
sI5
F-18.372402521941098
sI7
F-99.95060367686943
ssS'BAB0AA0B0'
p2081
(dp2082
I9
F-3.9999999240606017
sI4
F100.0
sI7
F-3.9960379693613772
ssS'A0000BBA0'
p2083
(dp2084
I9
F-78.4897894958516
sI2
F-10.075747942634365
sI3
F-1.1523478606075526
sI4
F-77.17335011759826
sI5
F77.91314741247906
ssS'0AB0A0BB0'
p2085
(dp2086
I1
F-96.56014806758917
sI4
F-99.40668768192067
sI6
F-99.999998173958
sI9
F-4.000911786841675
ssS'00B0BAAAB'
p2087
(dp2088
I1
F1.4348840227853081
sI2
F-99.99999903573448
sI4
F-99.99999945761132
ssS'AB00BBAAB'
p2089
(dp2090
I3
F-100.0
sI4
F100.0
ssS'B0000B00A'
p2091
(dp2092
I2
F-79.96032968005477
sI3
F-78.23000118401036
sI4
F-6.469699982396372
sI5
F-36.15402258754523
sI7
F-57.5789458403108
sI8
F-62.573512168827065
ssS'BBA00B0A0'
p2093
(dp2094
I9
F-35.58463673383531
sI4
F-20.002281962857126
sI5
F-57.05816336929805
sI7
F79.99999449840611
ssS'BBAB0AA0B'
p2095
(dp2096
I8
F-100.0
sI5
F100.0
ssS'0BBA0ABA0'
p2097
(dp2098
I1
F29.47489999999999
sI5
F100.0
sI9
F-99.757
ssS'0000ABA0B'
p2099
(dp2100
I8
F-99.56349173076426
sI1
F-85.99641953067449
sI2
F-99.99069036159872
sI3
F100.0
sI4
F-99.97138146217165
ssS'BAB00BAA0'
p2101
(dp2102
I9
F99.99940950999999
sI4
F-98.87648881512159
sI5
F100.0
ssS'B0B0AB00A'
p2103
(dp2104
I8
F-99.99999997964414
sI2
F-3.999999924010093
sI4
F-93.78736640944189
sI7
F-99.9996031905658
ssS'000BA00AB'
p2105
(dp2106
I1
F55.43630520503012
sI2
F100.0
sI3
F79.99999994286574
sI6
F3.9299000262112607
sI7
F79.99999999999505
ssS'BA0AABBB0'
p2107
(dp2108
I9
F-5.0
sI3
F-100.0
ssS'AB00B000A'
p2109
(dp2110
I8
F-3.113744986818338
sI3
F-98.96022208815168
sI4
F-99.99173314000001
sI6
F-79.62063733067203
sI7
F-99.69352962168145
ssS'BBAB0A000'
p2111
(dp2112
I8
F-96.49758896509412
sI9
F100.0
sI5
F79.99997201305243
sI7
F79.99999998663121
ssS'BA00A0ABB'
p2113
(dp2114
I3
F100.0
sI4
F80.0
sI6
F80.0
ssS'0BBA0A0BA'
p2115
(dp2116
I1
F67.63524607795281
sI5
F100.0
sI7
F-97.3
ssS'0BA00BA0B'
p2117
(dp2118
I8
F-69.89544056246976
sI1
F46.399742073933524
sI4
F79.99265119787673
sI5
F100.0
ssS'AB000AB00'
p2119
(dp2120
I8
F-14.521084065406708
sI9
F-34.447404148846786
sI3
F-7.999455171975528
sI4
F-45.04545690140732
sI5
F24.730892073771166
ssS'AA0B0ABB0'
p2121
(dp2122
I9
F79.99999965562623
sI3
F100.0
sI5
F-99.90732755960235
ssS'0BBA0BAA0'
p2123
(dp2124
I1
F99.999822853
sI5
F-99.993439
sI9
F100.0
ssS'BAB00AB00'
p2125
(dp2126
I8
F-99.99999819203772
sI9
F-99.99999999999882
sI4
F-85.99903277737904
sI5
F-99.9999999996046
ssS'BAA00BBA0'
p2127
(dp2128
I9
F-77.26399571767456
sI4
F-1.8919863860727144
sI5
F100.0
ssS'0AAABB0B0'
p2129
(dp2130
I1
F100.0
sI7
F-3.523719999127808
sI9
F-3.5237197466835566
ssS'BAAABBBA0'
p2131
(dp2132
I9
F-5.0
ssS'BBAA0A0BB'
p2133
(dp2134
I5
F100.0
sI7
F-100.0
ssS'0AAB000B0'
p2135
(dp2136
I1
F100.0
sI7
F73.93325721091925
sI5
F46.39999716325899
sI6
F76.6399928568364
sI9
F79.99183471978012
ssS'AB0B0BAA0'
p2137
(dp2138
I9
F100.0
sI3
F-58.795466797900005
sI5
F79.99999999999322
ssS'AB00B00AB'
p2139
(dp2140
I3
F-19.960000068752656
sI4
F-62.12740540498394
sI6
F-62.43055745379858
sI7
F-3.8145336691647933
ssS'BBA0ABBA0'
p2141
(dp2142
I9
F-100.0
sI4
F-5.0
ssS'ABAB0AABB'
p2143
(dp2144
I5
F100.0
ssS'000BAB00A'
p2145
(dp2146
I8
F79.99999975854689
sI1
F100.0
sI2
F75.63199999713616
sI3
F79.9997773609258
sI7
F79.9727178634268
ssS'ABB0AB0A0'
p2147
(dp2148
I9
F100.0
sI4
F-99.98925303318374
sI7
F-88.3538199511708
ssS'0B0ABAB0A'
p2149
(dp2150
I8
F26.39862448999999
sI1
F-99.99998405677
sI3
F100.0
ssS'0A0B0A0BB'
p2151
(dp2152
I1
F-24.753636948685198
sI3
F-95.09435237546525
sI5
F-77.85501328239565
sI7
F-4.000000000000036
ssS'ABBAA0B00'
p2153
(dp2154
I8
F80.0
sI9
F100.0
sI6
F100.0
ssS'0B0B00AAB'
p2155
(dp2156
I1
F-79.9999974554059
sI3
F32.007348802123275
sI5
F-79.99999839281412
sI6
F-79.9999992364211
ssS'ABB0B000A'
p2157
(dp2158
I8
F-99.99999999559562
sI4
F-100.0
sI6
F-99.99999999998681
sI7
F-99.96974048796503
ssS'ABBA00000'
p2159
(dp2160
I8
F63.209672069532395
sI9
F79.44519582434708
sI5
F79.93378893131465
sI6
F37.50706050170017
sI7
F100.0
ssS'A000B00B0'
p2161
(dp2162
I2
F61.724253734033375
sI3
F-99.90542248559359
sI4
F-99.97169973242308
sI6
F-99.99999990830706
sI7
F-31.97301354089859
sI9
F-99.99690058986378
ssS'B00BA00AB'
p2163
(dp2164
I2
F100.0
sI3
F-99.99999995113419
sI6
F-95.76506078655356
sI7
F36.31994047860799
ssS'000BBAAAB'
p2165
(dp2166
I1
F-4.0
sI2
F-99.95100047742523
sI3
F-99.9999889100738
ssS'0B0BA0B0A'
p2167
(dp2168
I8
F-98.63211344332271
sI1
F100.0
sI3
F-98.94325807979439
sI6
F-88.64895435616971
ssS'BABB00A0A'
p2169
(dp2170
I8
F100.0
sI5
F19.130746985793195
sI6
F15.90368021174757
ssS'0AABB000B'
p2171
(dp2172
I8
F-87.60266872486845
sI1
F100.0
sI6
F-81.16802162470864
sI7
F-99.969667548554
ssS'00B00AB0A'
p2173
(dp2174
I8
F-99.85257932791687
sI1
F-98.97937388498606
sI2
F-97.43693309038754
sI4
F-98.97937991152924
sI5
F79.28102109312321
ssS'B00000ABA'
p2175
(dp2176
I2
F-3.1999999999879103
sI3
F-28.613180860208317
sI4
F-77.71349722422539
sI5
F38.91899669391404
sI6
F-14.084445627028387
ssS'BAB0000AB'
p2177
(dp2178
I4
F-99.99974087930485
sI5
F100.0
sI6
F-99.98845612434812
sI7
F26.003322031200213
ssS'0BA0BBA00'
p2179
(dp2180
I8
F-96.59799819203768
sI1
F-99.99999999837158
sI4
F-99.999999994576
sI9
F-99.9999999938564
ssS'ABB000000'
p2181
(dp2182
I4
F-34.053653161478266
sI5
F-16.122640368238947
sI6
F-74.64806018232036
sI7
F35.65910119227554
sI8
F-0.7349774690045603
sI9
F-77.30515305246483
ssS'BAB00ABA0'
p2183
(dp2184
I9
F-99.999995217031
sI4
F-96.4677539611537
sI5
F100.0
ssS'A00A0BB00'
p2185
(dp2186
I8
F-73.59231133823295
sI9
F-55.87071804847082
sI2
F-52.1826398776393
sI3
F6.678401225193764
sI5
F-64.71411515434737
ssS'AA0BB00BA'
p2187
(dp2188
I3
F100.0
sI6
F-2.4120214671574716
sI7
F-99.95101022785288
ssS'BB000AAB0'
p2189
(dp2190
I9
F-99.68298987100061
sI3
F-99.5626079024056
sI4
F-99.97213051891192
sI5
F-99.69304728490467
ssS'B00B000A0'
p2191
(dp2192
I2
F-99.69281815718078
sI3
F-57.02127655883284
sI5
F-99.97921201599122
sI6
F-95.75066315368026
sI7
F61.4310383423068
sI9
F-99.96318772363203
ssS'AB0A0B000'
p2193
(dp2194
I8
F-0.6966068439333881
sI9
F79.99999999804048
sI3
F6.778533718059563
sI5
F78.4371420194655
sI7
F100.0
ssS'AAB00BAB0'
p2195
(dp2196
I9
F79.99999999999939
sI4
F100.0
sI5
F-87.62855995169747
ssS'A0BB000BA'
p2197
(dp2198
I2
F32.93906769052789
sI5
F100.0
sI6
F-33.2634294414007
sI7
F-32.38137216959437
ssS'0BAAA00BB'
p2199
(dp2200
I1
F41.14348734590298
sI6
F100.0
sI7
F99.99999999895397
ssS'B00B00A0A'
p2201
(dp2202
I8
F100.0
sI2
F16.968876995767296
sI3
F79.99999999999957
sI5
F79.7324697759449
sI6
F54.962620344968585
ssS'BA00B0B0A'
p2203
(dp2204
I8
F-99.96597999950667
sI3
F-99.97242987067611
sI4
F-99.99998834452971
sI6
F-99.99993244587674
ssS'AAB0BBA00'
p2205
(dp2206
I8
F-100.0
sI9
F-99.99999999988137
sI4
F100.0
ssS'A0B0BA0AB'
p2207
(dp2208
I2
F-99.99996425331918
sI4
F-99.99999928024664
sI7
F-3.9571347999999595
ssS'BB0B0A0A0'
p2209
(dp2210
I9
F-99.99999764964903
sI3
F-99.99977496873808
sI5
F-99.99999912896746
sI7
F-99.99970983321384
ssS'BB00A0BA0'
p2211
(dp2212
I9
F-99.99999999994289
sI3
F-79.8381921875765
sI4
F-99.90814503505051
sI6
F-99.99999999999605
ssS'0A000BAB0'
p2213
(dp2214
I1
F70.5075135040048
sI3
F5.632222754997642
sI4
F37.40322228695268
sI5
F16.048681915872493
sI9
F1.4987241963796718
ssS'BBAAB000A'
p2215
(dp2216
I8
F80.0
sI6
F100.0
sI7
F-98.88505991541174
ssS'A00BB0A00'
p2217
(dp2218
I8
F-99.96551796739972
sI9
F-99.99923587948571
sI2
F-99.80778519203771
sI3
F-62.17244379815838
sI6
F-2.8507633710295726
ssS'0BBAB00AA'
p2219
(dp2220
I1
F-98.88678189224765
sI6
F-100.0
sI7
F100.0
ssS'BA0B0B0AA'
p2221
(dp2222
I3
F-99.999822853
sI5
F100.0
sI7
F99.999995217031
ssS'B0BAA00B0'
p2223
(dp2224
I9
F-98.15549649114153
sI2
F-4.442449860452127
sI6
F100.0
sI7
F-99.99999999700744
ssS'B0A0BA0B0'
p2225
(dp2226
I9
F100.0
sI2
F-95.14344734688504
sI4
F-99.97221877205457
sI7
F-84.9776624838025
ssS'BA0B0BABA'
p2227
(dp2228
I3
F-100.0
sI5
F-5.0
ssS'AA0B0BA0B'
p2229
(dp2230
I8
F-99.9980317
sI3
F100.0
sI5
F-57.77490399876999
ssS'00ABAB00B'
p2231
(dp2232
I8
F79.98714041658148
sI1
F79.94427523938494
sI2
F80.0
sI7
F100.0
ssS'A0BB0ABA0'
p2233
(dp2234
I9
F37.746524065533805
sI2
F-61.08732026657843
sI5
F80.0
ssS'0AABB0000'
p2235
(dp2236
I8
F-99.99997968877538
sI1
F100.0
sI7
F-99.87384110660702
sI6
F47.065461803566905
sI9
F26.000000762753302
ssS'BAB00A000'
p2237
(dp2238
I8
F-70.2564419236904
sI9
F-25.336711815082644
sI4
F-65.9186056704012
sI5
F79.52825242248821
sI7
F-20.92719751802982
ssS'B0000BA00'
p2239
(dp2240
I2
F-79.69481564934127
sI3
F-76.96596806196958
sI4
F-79.99427106311734
sI5
F-79.90335596150388
sI8
F-64.62896199304095
sI9
F-44.72503631355373
ssS'0AB0AAB0B'
p2241
(dp2242
I8
F100.0
sI1
F-99.96897625340698
sI4
F99.99999999990585
ssS'ABAA0BBB0'
p2243
(dp2244
I9
F-100.0
sI5
F-100.0
ssS'0A0ABBBA0'
p2245
(dp2246
I1
F-99.6847421605998
sI3
F-3.9999960907833283
sI9
F-99.98530335211827
ssS'AABA00B0B'
p2247
(dp2248
I8
F-100.0
sI5
F-100.0
sI6
F-100.0
ssS'AA0A0BBB0'
p2249
(dp2250
I9
F79.999987245416
sI3
F100.0
sI5
F-50.859822853
ssS'00A0BB0AB'
p2251
(dp2252
I1
F-98.18559999988136
sI2
F-100.0
sI4
F-99.9999999945761
sI7
F-100.0
ssS'00AA0BABB'
p2253
(dp2254
I1
F99.99999999999923
sI2
F80.0
sI5
F100.0
ssS'B0BA000A0'
p2255
(dp2256
I9
F-96.58897817948147
sI2
F36.113975138321585
sI5
F-96.59551994199875
sI6
F-99.62199995118466
sI7
F-98.26691700815513
ssS'BABB00ABA'
p2257
(dp2258
I5
F-5.0
sI6
F-5.0
ssS'000B0B0AA'
p2259
(dp2260
I1
F-98.84899097902243
sI2
F67.933559568204
sI3
F-85.66539126902885
sI5
F79.99999999994728
sI7
F100.0
ssS'BAA000BAB'
p2261
(dp2262
I4
F-95.57474279499999
sI5
F100.0
sI6
F-99.99994685589999
ssS'ABBAA0B0B'
p2263
(dp2264
I8
F-100.0
sI6
F100.0
ssS'ABA0AB0B0'
p2265
(dp2266
I9
F100.0
sI4
F80.0
sI7
F100.0
ssS'B0AB0A0AB'
p2267
(dp2268
I2
F-99.99999998837738
sI5
F-99.99999982092453
sI7
F-88.35357647973764
ssS'BAA0BBABA'
p2269
(dp2270
I4
F-5.0
ssS'0ABA0B000'
p2271
(dp2272
I8
F-99.60383643162648
sI1
F-85.88603913499665
sI7
F-76.73071341666997
sI5
F-90.24928517514002
sI9
F63.86488408778017
ssS'0AAB000BB'
p2273
(dp2274
I1
F100.0
sI5
F79.59361410565943
sI6
F-69.66109797420995
sI7
F65.9887999960948
ssS'BAB0BA0A0'
p2275
(dp2276
I9
F-99.99999999559277
sI4
F-100.0
sI7
F-99.99999391893272
ssS'B00AAB0B0'
p2277
(dp2278
I9
F-59.06732002061217
sI2
F-79.99999999983305
sI3
F-3.52287677822973
sI7
F-79.09279995660798
ssS'BAAAABBB0'
p2279
(dp2280
I9
F-5.0
sssS'rewards'
p2281
(lp2282
s.