(dp0
S'policy'
p1
S'qlearning'
p2
sS'model'
p3
(dp4
S'00A0AB0B0'
p5
(dp6
I1
F80.0
sI2
F80.0
sI4
F61.40190696235856
sI9
F80.0
sI7
F100.0
ssS'00BA0BBAA'
p7
(dp8
I1
F26.02831616063
sI2
F37.34083166664615
sI5
F80.0
ssS'0BA0ABBA0'
p9
(dp10
I1
F-3.8127431659237025
sI4
F-4.0
sI9
F-3.9867932312644827
ssS'A0BABA00B'
p11
(dp12
I8
F-99.99925576531693
sI2
F-50.85751368745092
sI7
F100.0
ssS'00A0ABB0B'
p13
(dp14
I8
F-3.9999687512690607
sI1
F-99.9999997106814
sI2
F-87.5109114186453
sI4
F-98.18427312399257
ssS'A00B0B00A'
p15
(dp16
I8
F79.99975067047117
sI2
F42.1990327759423
sI3
F64.23733248979734
sI5
F100.0
sI7
F-50.42282977454565
ssS'ABAAB0B00'
p17
(dp18
I8
F-4.0
sI9
F-99.44098335991775
sI6
F-99.78771198584433
ssS'AA00BB0B0'
p19
(dp20
I9
F-84.7397213728573
sI3
F100.0
sI4
F80.0
sI7
F-87.50824878868505
ssS'00AB0BAB0'
p21
(dp22
I1
F30.45367280723218
sI2
F-61.85544190712848
sI5
F100.0
sI9
F-87.50917350179785
ssS'A0A0BBBA0'
p23
(dp24
I9
F-32.58771519999995
sI2
F100.0
sI4
F-3.957134799938019
ssS'0BAB0BAAB'
p25
(dp26
I1
F-100.0
sI5
F100.0
ssS'BABA000AB'
p27
(dp28
I5
F100.0
sI6
F-53.24082399999999
sI7
F-99.19
ssS'0BA0B000A'
p29
(dp30
I8
F80.0
sI1
F-96.26246701093336
sI4
F-97.18678550764491
sI6
F100.0
sI7
F-88.35133992735189
ssS'0ABBABB0A'
p31
(dp32
I8
F100.0
sI1
F100.0
ssS'000B0A000'
p33
(dp34
I1
F42.566060372283076
sI2
F51.272580762024106
sI3
F0.13802347012460503
sI5
F-1.374864920785438
sI7
F0.23554307283116982
sI8
F36.00636235157333
sI9
F35.02338798262464
ssS'BB0B0A0A0'
p35
(dp36
I9
F-99.9992358939725
sI3
F-99.99999063649521
sI5
F-99.999914429638
sI7
F-95.73594373657447
ssS'ABBAA0B00'
p37
(dp38
I8
F80.0
sI9
F100.0
sI6
F100.0
ssS'BAB0A000B'
p39
(dp40
I8
F100.0
sI4
F-96.59799944244087
sI6
F80.0
sI7
F-93.9506773024
ssS'0BB0ABAA0'
p41
(dp42
I1
F-99.99968793546391
sI4
F-100.0
sI9
F100.0
ssS'00B00AABB'
p43
(dp44
I1
F78.26950661647818
sI2
F-4.0
sI4
F80.0
sI5
F-3.999854875406863
ssS'0B0B0BA0A'
p45
(dp46
I8
F100.0
sI1
F-60.83385475832469
sI3
F64.2348309154437
sI5
F80.0
ssS'AAB000BBA'
p47
(dp48
I4
F26.03003630786101
sI5
F100.0
sI6
F-99.9997504634455
ssS'0BAB00A0B'
p49
(dp50
I8
F-45.10401965272739
sI1
F-43.10136992678186
sI5
F100.0
sI6
F79.9753018344229
ssS'AB00B00AB'
p51
(dp52
I3
F-4.0
sI4
F-3.953172769508643
sI6
F-4.0
sI7
F-3.9532675567656352
ssS'AABBBA0BA'
p53
(dp54
I7
F-5.0
ssS'BA0A0ABB0'
p55
(dp56
I9
F79.9998582824
sI3
F37.41289999999999
sI5
F100.0
ssS'B0BB00AA0'
p57
(dp58
I9
F100.0
sI2
F80.0
sI5
F78.97032214503456
sI6
F-47.36174022846849
ssS'AABBA00B0'
p59
(dp60
I9
F100.0
sI6
F-1.9361199993848892
sI7
F13.68287746293943
ssS'B00BBAA00'
p61
(dp62
I8
F-99.9967759246
sI9
F80.0
sI2
F-99.93189484612815
sI3
F-99.97244363596539
ssS'00BB0A0A0'
p63
(dp64
I1
F-3.177146919059546
sI2
F64.84558581890795
sI9
F-40.04861519226198
sI5
F55.08498665486609
sI7
F-3.121129205632109
ssS'ABB0ABA00'
p65
(dp66
I8
F-96.59797990669072
sI9
F100.0
sI4
F100.0
ssS'00BBA00BA'
p67
(dp68
I1
F100.0
sI2
F-3.366333639024535
sI6
F-79.99999395433778
sI7
F14.116281203196088
ssS'0B0AA0B0B'
p69
(dp70
I8
F-3.9961421091457128
sI1
F-100.0
sI3
F-99.99867633673654
sI6
F100.0
ssS'AA0AB0B0B'
p71
(dp72
I8
F-98.67319915222326
sI3
F100.0
sI6
F-99.99999999651321
ssS'A00A0B00B'
p73
(dp74
I8
F-88.83391461679925
sI2
F-98.56955674254385
sI3
F80.0
sI5
F-99.88434022984809
sI7
F100.0
ssS'0BB0A0A0B'
p75
(dp76
I8
F-99.88351339774843
sI1
F-99.87810652548274
sI4
F-99.69382
sI6
F-99.8351361723593
ssS'00AAB0BBA'
p77
(dp78
I1
F-99.99999999812813
sI2
F80.0
sI6
F100.0
ssS'BAABBA000'
p79
(dp80
I8
F-99.99999999999746
sI9
F100.0
sI7
F67.53605430471733
ssS'AA00000BB'
p81
(dp82
I3
F100.0
sI4
F-84.1070128757967
sI5
F28.9108746846114
sI6
F-20.022904586470872
sI7
F80.0
ssS'AA0BBABB0'
p83
(dp84
I9
F-100.0
sI3
F100.0
ssS'0ABAB000B'
p85
(dp86
I8
F-99.99999996125796
sI1
F-95.45775980821165
sI6
F-95.4209964930238
sI7
F-98.88651175223457
ssS'00BB0A0BA'
p87
(dp88
I1
F-78.82056101511282
sI2
F-79.99999916715602
sI5
F-79.97544606168547
sI7
F-79.99999976896362
ssS'0A00A0BB0'
p89
(dp90
I1
F-99.99970929081464
sI3
F-96.50607903828755
sI4
F-31.680836614207053
sI6
F-99.96149366390922
sI9
F-3.139435402527916
ssS'B00000B0A'
p91
(dp92
I2
F-99.95060296
sI3
F-96.43325614760154
sI4
F-54.018140912790656
sI5
F-93.81827955708933
sI6
F-87.24486621893945
sI8
F-99.99999993607007
ssS'AAB000BB0'
p93
(dp94
I9
F-99.88029942113144
sI4
F-99.87511714345351
sI5
F-99.6913380643484
sI6
F-99.8392871310724
ssS'0AB0BA0B0'
p95
(dp96
I1
F-99.9996022263912
sI4
F-99.99997512107497
sI9
F-79.8385215747043
sI7
F-4.0
ssS'0A0ABB000'
p97
(dp98
I8
F-71.8347199521002
sI1
F80.0
sI3
F-3.199999915118801
sI9
F-3.099628411443529
sI7
F-2.982400477922292
ssS'ABA0BB00A'
p99
(dp100
I8
F-97.64116094919301
sI4
F-99.98490655072
sI7
F-100.0
ssS'00000B000'
p101
(dp102
I1
F-56.17910361643817
sI2
F-49.155406078183574
sI3
F-2.5323724658885385
sI4
F-2.5579226269969686
sI5
F27.40652853838933
sI7
F-46.14613972671234
sI8
F-54.55981315434745
sI9
F-2.532000615172617
ssS'AB000BA00'
p103
(dp104
I8
F80.0
sI9
F80.0
sI3
F80.0
sI4
F100.0
sI5
F80.0
ssS'A0A0BBBAB'
p105
(dp106
I2
F100.0
sI4
F-5.0
ssS'BA00AABB0'
p107
(dp108
I9
F-88.6592311111612
sI3
F-99.99999999651321
sI4
F100.0
ssS'00BB0AAB0'
p109
(dp110
I1
F-4.0
sI2
F-4.0
sI5
F-4.0
sI9
F-79.99650075972737
ssS'000B0A00B'
p111
(dp112
I1
F-3.2
sI2
F-9.422401391252507
sI3
F-54.63684687928371
sI5
F-60.49966894568843
sI7
F0.6774251604468375
sI8
F-57.42137703257906
ssS'0000AB00B'
p113
(dp114
I1
F-99.97757941819461
sI2
F-99.90814599999997
sI3
F19.65548855947182
sI4
F-30.24223831960368
sI7
F-98.85676570952356
sI8
F-88.63168883656124
ssS'0AAB0BAB0'
p115
(dp116
I1
F99.9999985651093
sI5
F100.0
sI9
F27.35786638541599
ssS'0BBBBAA0A'
p117
(dp118
I8
F100.0
sI1
F-100.0
ssS'00BBA0AB0'
p119
(dp120
I1
F-3.996142131983259
sI2
F-4.0
sI6
F-4.0
sI9
F-4.0
ssS'AAB0A0BB0'
p121
(dp122
I9
F100.0
sI4
F26.000001808080896
sI6
F-99.97244182349114
ssS'0ABBA0A0B'
p123
(dp124
I8
F100.0
sI1
F-77.84569413222306
sI6
F60.727985821931696
ssS'00B0AAB00'
p125
(dp126
I8
F80.0
sI1
F80.0
sI2
F80.0
sI4
F100.0
sI9
F80.0
ssS'A000B0BA0'
p127
(dp128
I9
F-99.99878920485017
sI2
F-99.69133939961131
sI3
F72.72056436345225
sI4
F-31.67628726008907
sI6
F-99.37112891081956
ssS'A00B0B000'
p129
(dp130
I2
F-99.86810759573659
sI3
F-99.9724236968857
sI5
F64.0000679262012
sI7
F25.157106760009214
sI8
F-97.86405621422382
sI9
F-62.197519762885335
ssS'B0AA0B0AB'
p131
(dp132
I2
F-96.49530349700474
sI5
F80.0
sI7
F-88.6258828
ssS'AA00BB0BA'
p133
(dp134
I3
F100.0
sI4
F80.0
sI7
F26.000000000122128
ssS'BBA0A0B0A'
p135
(dp136
I8
F-99.99999997375447
sI4
F-2.2227929319950164
sI6
F100.0
ssS'0BBA000AB'
p137
(dp138
I1
F-99.99497644455533
sI5
F-99.98925122518365
sI6
F-99.99254626333347
sI7
F-99.99170686211845
ssS'0ABA0A0BB'
p139
(dp140
I1
F-98.85080257913879
sI5
F100.0
sI7
F79.94168
ssS'BAABB000A'
p141
(dp142
I8
F-100.0
sI6
F100.0
sI7
F-87.61184198752575
ssS'00BBABA0A'
p143
(dp144
I8
F100.0
sI1
F100.0
sI2
F80.0
ssS'BA0000ABB'
p145
(dp146
I3
F-99.9641761843511
sI4
F-98.73999235889337
sI5
F-3.9996527898297707
sI6
F-30.98107167564131
ssS'AB000B000'
p147
(dp148
I3
F-9.141883475906688
sI4
F-59.171722981436986
sI5
F55.04007656695614
sI7
F64.00244949294616
sI8
F10.9126731084107
sI9
F-79.95408672183032
ssS'00B0ABA00'
p149
(dp150
I8
F-99.69307580084235
sI1
F-98.97910978439901
sI2
F-96.59551921609659
sI4
F-99.9723548390199
sI9
F80.0
ssS'ABA0A0B0B'
p151
(dp152
I8
F-4.0
sI4
F-97.64088319072
sI6
F-99.99867729914307
ssS'00A000ABB'
p153
(dp154
I1
F80.0
sI2
F80.0
sI4
F80.0
sI5
F100.0
sI6
F-79.7857510536864
ssS'00BAB00AB'
p155
(dp156
I1
F-99.69104902084857
sI2
F-99.99999999999746
sI6
F-99.95457983724522
sI7
F-99.59947794466156
ssS'AA00BBB00'
p157
(dp158
I8
F-98.97937810355617
sI9
F-99.99993303841913
sI3
F100.0
sI4
F67.61107964527642
ssS'AB0B0B00A'
p159
(dp160
I8
F42.10807647612046
sI3
F-95.24014292354659
sI5
F100.0
sI7
F-57.34826691452983
ssS'ABABA0B00'
p161
(dp162
I8
F-3.999968497539276
sI9
F100.0
sI6
F-3.9988111356322884
ssS'00AB0BA00'
p163
(dp164
I8
F-46.30626705444186
sI1
F-87.23782307507871
sI2
F-87.29388012990628
sI5
F100.0
sI9
F-46.34222631403516
ssS'00B0BAA00'
p165
(dp166
I8
F-3.1447027806030348
sI1
F70.16224215636505
sI2
F-3.173095566025345
sI4
F-76.93929739736927
sI9
F-3.187229175220186
ssS'0ABB0B0AA'
p167
(dp168
I1
F-58.72510000059053
sI5
F100.0
sI7
F99.9980317
ssS'AA0000B0B'
p169
(dp170
I8
F80.0
sI3
F100.0
sI4
F-49.03227293562598
sI5
F-98.5422232052556
sI6
F-98.82492334567046
ssS'AA00BB00B'
p171
(dp172
I8
F-98.85900194200855
sI3
F100.0
sI4
F-96.2549347676636
sI7
F-98.94109085494475
ssS'ABB00BA0A'
p173
(dp174
I8
F99.99999999997175
sI4
F100.0
sI5
F99.9999985651093
ssS'000BAAABB'
p175
(dp176
I1
F-2.2691687613888663
sI2
F1.3477275725752875
sI3
F100.0
ssS'BA0ABBBAA'
p177
(dp178
I3
F-5.0
ssS'AABBBA00B'
p179
(dp180
I8
F-100.0
sI7
F-5.0
ssS'00AA0BB0B'
p181
(dp182
I8
F-4.0
sI1
F-87.80949999998006
sI2
F-99.97235889754164
sI5
F-98.13661023575344
ssS'ABB00B00A'
p183
(dp184
I8
F80.0
sI4
F80.0
sI5
F100.0
sI7
F80.0
ssS'AABB000B0'
p185
(dp186
I9
F-79.99925366555725
sI5
F-79.99772897472151
sI6
F-64.03535968216431
sI7
F-79.99885006978985
ssS'00BBBA0A0'
p187
(dp188
I1
F-99.77245171564088
sI2
F-99.61799396313708
sI9
F-99.99645706439335
sI7
F13.640000002234757
ssS'BABABB00A'
p189
(dp190
I8
F-100.0
sI7
F-5.0
ssS'AA00B0BAB'
p191
(dp192
I3
F100.0
sI4
F-87.53843967648758
sI6
F-96.55886575101059
ssS'AABB00000'
p193
(dp194
I8
F-62.91528245510415
sI9
F-35.925586312602675
sI5
F80.0
sI6
F-3.1999995258891434
sI7
F2.411167358520551
ssS'B0AA0BAB0'
p195
(dp196
I9
F-1.7916235899222919
sI2
F-3.5185997426911673
sI5
F100.0
ssS'ABAB00000'
p197
(dp198
I8
F26.87209783059457
sI9
F80.0
sI5
F80.0
sI6
F12.261485288210523
sI7
F-77.45227020570803
ssS'BAB0BA00A'
p199
(dp200
I8
F-99.99977022106154
sI4
F-99.99996428695393
sI7
F-3.9961108832692
ssS'BAAB000B0'
p201
(dp202
I9
F-99.98621765485487
sI5
F-99.90467019893134
sI6
F-99.98637898163716
sI7
F45.104000000010345
ssS'B0B0AAABB'
p203
(dp204
I2
F-5.0
sI4
F100.0
ssS'0BBA00AB0'
p205
(dp206
I1
F100.0
sI5
F30.740589631571964
sI6
F-96.5979999956054
sI9
F37.646492079180575
ssS'0A000B0BA'
p207
(dp208
I1
F80.0
sI3
F-0.981543590236079
sI4
F11.403094457368567
sI5
F-1.4075750302090855
sI7
F10.950998543725724
ssS'00ABB00AB'
p209
(dp210
I1
F-99.99864148806884
sI2
F-99.99166563564991
sI6
F-12.638629813803664
sI7
F-99.9867049587523
ssS'B0AA0BABB'
p211
(dp212
I2
F-100.0
sI5
F100.0
ssS'B0AB0A0B0'
p213
(dp214
I9
F100.0
sI2
F-45.19589058984792
sI5
F29.40553509045678
sI7
F80.0
ssS'B0BBA0AAB'
p215
(dp216
I2
F100.0
sI6
F-100.0
ssS'BB0AB0A0A'
p217
(dp218
I8
F100.0
sI3
F-62.199776034703504
sI6
F-100.0
ssS'BA0A000B0'
p219
(dp220
I9
F-3.199914273077501
sI3
F-78.01220602296854
sI5
F-3.162766481677425
sI6
F51.74092099010091
sI7
F-3.196911454051124
ssS'B000ABAB0'
p221
(dp222
I9
F-3.9438928488946265
sI2
F-3.999535237987839
sI3
F100.0
sI4
F-46.39777015757264
ssS'0BBBA00A0'
p223
(dp224
I1
F-3.999882551488805
sI9
F-62.10812356077287
sI6
F-98.1855999921896
sI7
F-95.79999916754815
ssS'AA00BB000'
p225
(dp226
I8
F-88.65126229873687
sI9
F-97.64894434613572
sI3
F100.0
sI4
F80.0
sI7
F-99.59842360374353
ssS'00BBA0BAA'
p227
(dp228
I1
F100.0
sI2
F100.0
sI6
F-99.90811972095464
ssS'B00BABA0A'
p229
(dp230
I8
F100.0
sI2
F80.0
sI3
F100.0
ssS'BAB0AABBA'
p231
(dp232
I4
F100.0
ssS'AB0BB0AA0'
p233
(dp234
I9
F100.0
sI3
F-99.99999903575294
sI6
F-3.9999684972984086
ssS'BABBA0AB0'
p235
(dp236
I9
F-5.0
sI6
F-5.0
ssS'AABBBA000'
p237
(dp238
I8
F-99.99987024074564
sI9
F-99.8218883170046
sI7
F-4.0
ssS'0BB0AA0B0'
p239
(dp240
I1
F80.0
sI4
F100.0
sI9
F40.745224622732024
sI7
F-32.750529938920565
ssS'B0AB0A000'
p241
(dp242
I8
F-99.99722372849547
sI9
F100.0
sI2
F-96.67962148515772
sI5
F27.14926624424021
sI7
F80.0
ssS'0000A00BB'
p243
(dp244
I1
F-98.17046993919624
sI2
F-99.32527811828506
sI3
F-99.99999940879604
sI4
F-99.6141459171568
sI6
F-95.52509848383625
sI7
F72.71952892063953
ssS'BABABA000'
p245
(dp246
I8
F-99.9980317
sI9
F-99.99867721555209
sI7
F-99.99867726757144
ssS'0BA0ABB0A'
p247
(dp248
I8
F14.11628962853355
sI1
F100.0
sI4
F55.27628008276855
ssS'A0A00BBB0'
p249
(dp250
I9
F80.0
sI2
F100.0
sI4
F-99.60899175793604
sI5
F-99.99893893086966
ssS'ABABA0B0B'
p251
(dp252
I8
F-5.0
sI6
F-100.0
ssS'0ABAA0BB0'
p253
(dp254
I1
F-99.97237629460021
sI6
F100.0
sI9
F79.99999999916318
ssS'B0BA00AAB'
p255
(dp256
I2
F-100.0
sI5
F-100.0
sI6
F-100.0
ssS'AB000AABB'
p257
(dp258
I3
F-99.65740645
sI4
F100.0
sI5
F79.9998582804474
ssS'0ABBA000B'
p259
(dp260
I8
F100.0
sI1
F-99.99993122607805
sI6
F-3.9957949238728867
sI7
F-99.99996423764688
ssS'000AB0BAB'
p261
(dp262
I1
F-99.99999970981217
sI2
F-99.99999979911529
sI3
F-99.9999997107255
sI6
F-99.9999999999988
ssS'BB000AB0A'
p263
(dp264
I8
F40.76984817646294
sI3
F100.0
sI4
F-98.64287272659398
sI5
F-57.47018580104019
ssS'00B00A0B0'
p265
(dp266
I1
F-28.804427611137974
sI2
F-77.92091538712432
sI4
F-79.99766171140405
sI5
F-3.199805526821336
sI7
F-3.204703978649589
sI9
F-70.89463174465448
ssS'0ABA0BB00'
p267
(dp268
I8
F-99.99977482278283
sI1
F-99.99971449903951
sI5
F-99.999774937997
sI9
F-98.18559638305035
ssS'000B0BA00'
p269
(dp270
I1
F-99.99246782374559
sI2
F-85.83293290640661
sI3
F-58.7977767933064
sI5
F64.00002162611736
sI8
F26.000000004957855
sI9
F-85.15787733190928
ssS'B0ABA00AB'
p271
(dp272
I2
F100.0
sI6
F-99.59923619130205
sI7
F100.0
ssS'0BABA0BAB'
p273
(dp274
I1
F-5.0
sI6
F-100.0
ssS'00BA0AB0B'
p275
(dp276
I8
F-49.7392706933727
sI1
F-99.599485395207
sI2
F-99.99997205787011
sI5
F100.0
ssS'00B00A000'
p277
(dp278
I1
F0.5938473717899372
sI2
F-0.6536711602869962
sI4
F-20.498133293701343
sI5
F-1.3941129448717615
sI7
F25.537116559019584
sI8
F1.3074654144902933
sI9
F0.8213233278704379
ssS'B000BBAA0'
p279
(dp280
I9
F100.0
sI2
F-98.97939929305821
sI3
F-99.90813979553768
sI4
F-57.340772166560086
ssS'AA0BBA00B'
p281
(dp282
I8
F1.3478605256831795
sI3
F100.0
sI7
F-3.999958180434637
ssS'00BBABA00'
p283
(dp284
I8
F38.6692600726477
sI1
F-99.99092033841654
sI2
F-79.8399993705794
sI9
F80.0
ssS'A00B0AB0B'
p285
(dp286
I8
F-4.0
sI2
F-99.9897938372831
sI3
F-99.99998832169149
sI5
F-79.83867727402222
ssS'BA0B000A0'
p287
(dp288
I9
F-49.40229252166168
sI3
F27.422149797004053
sI5
F100.0
sI6
F27.421910038917545
sI7
F79.99999989668787
ssS'0ABBA0BBA'
p289
(dp290
I1
F100.0
sI6
F-100.0
ssS'0B000BAA0'
p291
(dp292
I1
F80.0
sI3
F80.0
sI4
F80.0
sI5
F80.0
sI9
F100.0
ssS'A0B0000BA'
p293
(dp294
I2
F15.292113028466922
sI4
F80.0
sI5
F100.0
sI6
F-71.98241830996477
sI7
F80.0
ssS'0BB0AA000'
p295
(dp296
I8
F-99.99977076293176
sI1
F80.0
sI4
F100.0
sI9
F-96.59549364375056
sI7
F-88.65979225458169
ssS'ABA00AB0B'
p297
(dp298
I8
F-4.0
sI4
F-99.95100982505755
sI5
F-73.7906412124626
ssS'0B00BB0AA'
p299
(dp300
I1
F-99.99962459693928
sI3
F-98.97492841719881
sI4
F-2.2679980621487
sI7
F100.0
ssS'B0B0A0000'
p301
(dp302
I2
F14.448875761164842
sI4
F-88.64152361269952
sI6
F-79.50003271183826
sI7
F-98.12947830204212
sI8
F-62.19977678013454
sI9
F-99.98686550852867
ssS'B0ABA0000'
p303
(dp304
I8
F26.437379369141468
sI9
F-99.99893947409792
sI2
F-99.99148129149361
sI6
F-88.56708316682924
sI7
F100.0
ssS'0AB00ABBA'
p305
(dp306
I1
F-99.90814581793174
sI4
F26.009327391333287
sI5
F80.0
ssS'AA000BB00'
p307
(dp308
I8
F80.0
sI9
F80.0
sI3
F100.0
sI4
F-77.9000957746853
sI5
F80.0
ssS'ABB0BBAA0'
p309
(dp310
I9
F100.0
sI4
F100.0
ssS'AB0BA00B0'
p311
(dp312
I9
F100.0
sI3
F80.0
sI6
F-2.2266505166501664
sI7
F80.0
ssS'BAB00ABBA'
p313
(dp314
I4
F-100.0
sI5
F-100.0
ssS'BBA00A000'
p315
(dp316
I8
F75.20349322905798
sI9
F100.0
sI4
F80.0
sI5
F80.0
sI7
F80.0
ssS'0A0B0BAAB'
p317
(dp318
I1
F-99.97813
sI3
F-84.89116722364815
sI5
F100.0
ssS'AA00BBBBA'
p319
(dp320
I3
F100.0
sI4
F-100.0
ssS'0BA0B0B0A'
p321
(dp322
I8
F1.8126497685422187
sI1
F-99.99993033316915
sI4
F-99.69381953878187
sI6
F100.0
ssS'0000AB0BA'
p323
(dp324
I1
F100.0
sI2
F10.9365935222651
sI3
F80.0
sI4
F16.87627151815745
sI7
F80.0
ssS'ABAB0BBA0'
p325
(dp326
I9
F-100.0
sI5
F-5.0
ssS'A0A0ABBB0'
p327
(dp328
I9
F99.99994685589999
sI2
F100.0
sI4
F30.542848728867426
ssS'ABABABB00'
p329
(dp330
I8
F-5.0
sI9
F100.0
ssS'0AA0B00BB'
p331
(dp332
I1
F100.0
sI4
F-99.99924977869794
sI6
F-99.99918228352222
sI7
F26.003455889964073
ssS'00AABABB0'
p333
(dp334
I1
F-99.999995217031
sI2
F-88.53132938456824
sI9
F100.0
ssS'0ABBBA000'
p335
(dp336
I8
F-99.99997519872268
sI1
F-32.251270918581056
sI9
F-99.9999891991563
sI7
F-4.0
ssS'AB000000B'
p337
(dp338
I3
F-1.9450779976622505
sI4
F-63.99784897536044
sI5
F-3.080439272856852
sI6
F0.06756823179111393
sI7
F-3.0803111940943864
sI8
F-3.2
ssS'00AB000B0'
p339
(dp340
I1
F64.00000000477955
sI2
F48.59380577537901
sI5
F-43.733551949746214
sI6
F-13.500659068046609
sI7
F34.6333221581511
sI9
F64.0002204684485
ssS'ABA0AB00B'
p341
(dp342
I8
F1.2920000000554914
sI4
F15.370935370611498
sI7
F100.0
ssS'AA00B00B0'
p343
(dp344
I9
F2.98085584649505
sI3
F100.0
sI4
F80.0
sI6
F9.810353290457694
sI7
F80.0
ssS'AABB0BA00'
p345
(dp346
I8
F-99.99999999999746
sI9
F29.402000004393344
sI5
F-99.99999999999866
ssS'0B00AB0AB'
p347
(dp348
I1
F-99.83666828686925
sI3
F60.56838500838648
sI4
F-91.38098448544028
sI7
F-98.97917678850727
ssS'BAABA00B0'
p349
(dp350
I9
F-62.10805834276216
sI6
F63.80098731110377
sI7
F100.0
ssS'0A00BABB0'
p351
(dp352
I1
F-99.99993287571739
sI3
F-99.99925544016496
sI4
F-99.99999912949964
sI9
F27.020602350354167
ssS'0BAAAB00B'
p353
(dp354
I8
F-3.999538150970607
sI1
F-3.510857544173329
sI7
F100.0
ssS'0ABA00ABB'
p355
(dp356
I1
F100.0
sI5
F-98.63459992867445
sI6
F79.99999982436937
ssS'ABBB0BA0A'
p357
(dp358
I8
F100.0
sI5
F100.0
ssS'B0B00AAAB'
p359
(dp360
I2
F-99.99993303843362
sI4
F-99.99999999999923
sI5
F-99.99999999560345
ssS'00AABAB0B'
p361
(dp362
I8
F-73.74165278956428
sI1
F-99.99999997394585
sI2
F-100.0
ssS'AB0B0000A'
p363
(dp364
I8
F80.0
sI3
F80.0
sI5
F100.0
sI6
F79.99999999999999
sI7
F80.0
ssS'BABA00BA0'
p365
(dp366
I9
F-59.5
sI5
F100.0
sI6
F26.312128639999983
ssS'0AB00B0A0'
p367
(dp368
I1
F-70.71799049202033
sI9
F79.999957409863
sI4
F-46.21652513170346
sI5
F100.0
sI7
F68.55732538852672
ssS'ABAA0B0BB'
p369
(dp370
I5
F-100.0
sI7
F100.0
ssS'00BA0AABB'
p371
(dp372
I1
F100.0
sI2
F79.99999998224021
sI5
F99.99999998837738
ssS'BAB000B0A'
p373
(dp374
I8
F-99.9999998372834
sI4
F-99.94968850239984
sI5
F26.02755629459257
sI6
F-100.0
ssS'BABA00BAB'
p375
(dp376
I5
F100.0
sI6
F-100.0
ssS'AB000A00B'
p377
(dp378
I8
F-3.048255569427758
sI3
F-9.91447472237572
sI4
F80.0
sI5
F10.340270092205575
sI7
F56.241740303888314
ssS'B0AA0B0B0'
p379
(dp380
I9
F-4.0
sI2
F-64.0282673035323
sI5
F74.02760007593639
sI7
F-79.09059549097947
ssS'AB0000000'
p381
(dp382
I3
F1.8139372121588355
sI4
F64.00000178697866
sI5
F64.00000004821264
sI6
F18.761633104312903
sI7
F64.3024018338582
sI8
F22.669993529109718
sI9
F36.86179914590892
ssS'00BAABBBA'
p383
(dp384
I1
F100.0
sI2
F-5.0
ssS'0ABA000B0'
p385
(dp386
I1
F-72.89774606073414
sI9
F-3.1617453017275503
sI5
F-1.1996193118134597
sI6
F65.19521584543911
sI7
F-1.3707199953600568
ssS'0A00BABBA'
p387
(dp388
I1
F-95.45142880000043
sI3
F100.0
sI4
F-57.34905339463259
ssS'AABABA0BB'
p389
(dp390
I7
F100.0
ssS'B0BAABA00'
p391
(dp392
I8
F-100.0
sI9
F-99.9999999132178
sI2
F-98.18518926271426
ssS'BBAA000B0'
p393
(dp394
I9
F-64.52599690725256
sI5
F80.0
sI6
F-96.19088196554688
sI7
F79.99090202199702
ssS'0B0ABA0AB'
p395
(dp396
I1
F62.15973789825108
sI3
F-99.99828049054702
sI7
F-99.69375121582597
ssS'AA0BBABBA'
p397
(dp398
I3
F100.0
ssS'0A0A0B00B'
p399
(dp400
I8
F-61.426654515376796
sI1
F-98.94077802417902
sI3
F64.00022044960001
sI5
F-99.87982171469999
sI7
F-99.99897963328
ssS'0A00A0B0B'
p401
(dp402
I8
F100.0
sI1
F-99.9975198874368
sI3
F40.75274769284096
sI4
F-99.90460306039861
sI6
F-99.96919299786029
ssS'BABA0BABA'
p403
(dp404
I5
F-5.0
ssS'B0B0A000A'
p405
(dp406
I8
F-58.67009971573894
sI2
F29.921411843791965
sI4
F-76.70631800433947
sI6
F-99.99997989197055
sI7
F-62.19998918078623
ssS'0AB00ABB0'
p407
(dp408
I1
F-99.9969057527738
sI4
F-99.996686903476
sI5
F-99.99687123349828
sI9
F-99.99878042020252
ssS'ABBA0AB00'
p409
(dp410
I8
F64.91592752475509
sI9
F-87.63029728977567
sI5
F100.0
ssS'A000000B0'
p411
(dp412
I2
F14.551120072634882
sI3
F64.00001984046409
sI4
F-9.402874587608633
sI5
F64.00002579824405
sI6
F16.907972349326005
sI7
F64.42056261067407
sI9
F20.047289163477522
ssS'A0AB000BB'
p413
(dp414
I2
F100.0
sI5
F-99.6937506187438
sI6
F-85.24720571285756
sI7
F80.0
ssS'BABA00B0A'
p415
(dp416
I8
F27.02087634931999
sI5
F80.0
sI6
F-62.19676792389339
ssS'A0BB00AAB'
p417
(dp418
I2
F-93.4076799921632
sI5
F-93.9519892782449
sI6
F-4.0
ssS'A00BA0BB0'
p419
(dp420
I9
F100.0
sI2
F26.09186073164655
sI3
F-96.59777679466139
sI6
F-99.90711176248385
ssS'B000AB0AB'
p421
(dp422
I2
F100.0
sI3
F80.0
sI4
F-88.60585818773266
sI7
F-99.99999144533636
ssS'0A0ABBB0A'
p423
(dp424
I8
F-99.9986773024
sI1
F-99.60121594129274
sI3
F-3.996142131999999
ssS'ABABAABB0'
p425
(dp426
I9
F100.0
ssS'00A0B0B0A'
p427
(dp428
I8
F-3.0573304620783333
sI1
F80.0
sI2
F80.0
sI4
F74.7017497022837
sI6
F100.0
ssS'AB0BAB0AB'
p429
(dp430
I3
F-5.0
sI7
F-100.0
ssS'0ABB00AAB'
p431
(dp432
I1
F-99.22680685418291
sI5
F100.0
sI6
F-1.7903200000001274
ssS'0000B00A0'
p433
(dp434
I1
F40.363087658954846
sI2
F-23.63690033104186
sI3
F1.6017909517619264
sI4
F-1.3461679405803235
sI6
F-1.182442952681372
sI7
F-2.54454046616325
sI9
F17.510807198697016
ssS'0ABA0000B'
p435
(dp436
I8
F-85.9917286531786
sI1
F-98.7392541702437
sI5
F-95.48532256376461
sI6
F-45.91636553694291
sI7
F-99.88058744964485
ssS'00BAABB0A'
p437
(dp438
I8
F80.0
sI1
F100.0
sI2
F80.0
ssS'AB0AB0B0A'
p439
(dp440
I8
F-99.99999874407123
sI3
F-32.799999035751725
sI6
F-99.9999985651093
ssS'B0AAB0BA0'
p441
(dp442
I9
F-3.953273863832581
sI2
F-99.93631125906259
sI6
F-96.59799983728234
ssS'B0B0AB00A'
p443
(dp444
I8
F-98.97937986271202
sI2
F-3.857115992361331
sI4
F-79.83998607199251
sI7
F-99.99991286318199
ssS'B0BA0A0B0'
p445
(dp446
I9
F-99.87494281992099
sI2
F79.8865091352573
sI5
F100.0
sI7
F65.2144558464436
ssS'BBAAA0B00'
p447
(dp448
I8
F-3.999999977142554
sI9
F1.4352320519093666
sI6
F100.0
ssS'B0A000A0B'
p449
(dp450
I8
F-99.87706694902269
sI2
F27.15159608528029
sI4
F-61.88223964329265
sI5
F100.0
sI6
F-98.56979949380967
ssS'0B0AA00B0'
p451
(dp452
I1
F80.0
sI3
F80.0
sI9
F80.0
sI6
F100.0
sI7
F80.0
ssS'0AABBAB00'
p453
(dp454
I8
F-96.59452466726681
sI1
F100.0
sI9
F99.99999996125796
ssS'0BBA0BA00'
p455
(dp456
I8
F-95.57636581569217
sI1
F100.0
sI5
F42.06909809027722
sI9
F37.68530216351223
ssS'00BBAB00A'
p457
(dp458
I8
F80.0
sI1
F100.0
sI2
F80.0
sI7
F80.0
ssS'B0A0BBA00'
p459
(dp460
I8
F-99.99999944109787
sI9
F-95.79173313984258
sI2
F-99.99999754351037
sI4
F-99.99999926828424
ssS'A00AB0B0B'
p461
(dp462
I8
F-99.99958926271427
sI2
F-99.9999999999968
sI3
F-99.98523634961664
sI6
F-99.965972559826
ssS'BA0BA0A0B'
p463
(dp464
I8
F99.99994685589999
sI3
F100.0
sI6
F79.9984253580474
ssS'AABBABAB0'
p465
(dp466
I9
F100.0
ssS'0BBAABAB0'
p467
(dp468
I1
F100.0
sI9
F-100.0
ssS'A00AABB0B'
p469
(dp470
I8
F-99.99999678584483
sI2
F-100.0
sI3
F-99.98490646393192
ssS'BAA000B00'
p471
(dp472
I8
F-99.28829357116449
sI9
F-99.99999397273855
sI4
F-73.56473341118979
sI5
F26.003832468560745
sI6
F-96.56217090906569
ssS'B00000AB0'
p473
(dp474
I2
F29.72800331275837
sI3
F-68.53683206372312
sI4
F-27.796264409634468
sI5
F-3.1999990917110748
sI6
F-75.79905113144568
sI9
F-79.9295121852567
ssS'0BA0B00AB'
p475
(dp476
I1
F-4.0
sI4
F-32.73631455972581
sI6
F-32.240983333691204
sI7
F-99.99908145999999
ssS'0BBA0BABA'
p477
(dp478
I1
F100.0
sI5
F-100.0
ssS'BB0AA000B'
p479
(dp480
I8
F-79.83999997396532
sI3
F80.0
sI6
F100.0
sI7
F-98.97939993026762
ssS'BA00B0000'
p481
(dp482
I3
F-99.98486497989073
sI4
F-99.98623719716132
sI6
F-98.88573498683004
sI7
F-99.88628494432157
sI8
F-98.47803360279883
sI9
F-9.437961399028879
ssS'B0BAB000A'
p483
(dp484
I8
F-85.25799995106638
sI2
F-99.99999999929706
sI6
F-99.99999999999964
sI7
F-99.99999999868199
ssS'A0ABB00BA'
p485
(dp486
I2
F100.0
sI6
F99.99999999895397
sI7
F-99.99999998837738
ssS'00A0B0BBA'
p487
(dp488
I1
F-62.199999457477475
sI2
F80.0
sI4
F-99.44034322281092
sI6
F100.0
ssS'BAAB0B0AB'
p489
(dp490
I5
F100.0
sI7
F-100.0
ssS'AABB0BABA'
p491
(dp492
I5
F100.0
ssS'0AABAB0B0'
p493
(dp494
I1
F100.0
sI9
F80.0
sI7
F100.0
ssS'0AAABBB00'
p495
(dp496
I8
F54.800136608774764
sI1
F100.0
sI9
F-2.4122921497852916
ssS'00B0A0BA0'
p497
(dp498
I1
F80.0
sI2
F100.0
sI4
F80.0
sI6
F80.0
sI9
F80.0
ssS'B0BAA0B0A'
p499
(dp500
I8
F-99.99999945320688
sI2
F80.0
sI6
F100.0
ssS'0B0B0A0BA'
p501
(dp502
I1
F79.90492186112664
sI3
F100.0
sI5
F80.0
sI7
F-91.88091003588532
ssS'0A0BB00AB'
p503
(dp504
I1
F-99.9999914642396
sI3
F-99.99997973377339
sI6
F-99.99999024216851
sI7
F-99.99999249744528
ssS'B0BA00AB0'
p505
(dp506
I9
F-98.1690495946641
sI2
F-25.363599999983613
sI5
F-99.99989636564986
sI6
F-99.96273515877012
ssS'0BABA0B00'
p507
(dp508
I8
F-30.985599999998293
sI1
F-3.998811388203902
sI6
F-99.99999999557105
sI9
F-98.949363742
ssS'ABB0A0ABB'
p509
(dp510
I4
F100.0
sI6
F-5.0
ssS'BAAA0BABB'
p511
(dp512
I5
F100.0
ssS'BAB000BA0'
p513
(dp514
I9
F-95.4854712035237
sI4
F-88.35111054256437
sI5
F100.0
sI6
F-99.60195981074149
ssS'0AABB0B0A'
p515
(dp516
I8
F-99.999995217031
sI1
F100.0
sI6
F99.999822853
ssS'0B00ABBA0'
p517
(dp518
I1
F-3.9998645060646734
sI3
F-4.0
sI4
F-79.98836437417201
sI9
F-79.09274047470278
ssS'0AB00AB0B'
p519
(dp520
I8
F-99.99993302378951
sI1
F-99.96291819999996
sI4
F-99.99999999560664
sI5
F-62.18918430807837
ssS'00AAAB0BB'
p521
(dp522
I1
F-98.9793999467903
sI2
F-88.65653244767648
sI7
F100.0
ssS'0BAA0000B'
p523
(dp524
I8
F3.171715614232266
sI1
F79.99871017682639
sI5
F80.0
sI6
F79.19009429488597
sI7
F79.99475119999957
ssS'B0BABAABA'
p525
(dp526
I2
F-5.0
ssS'A000000BB'
p527
(dp528
I2
F-99.79474337232907
sI3
F-49.812241959022074
sI4
F-99.99999759587584
sI5
F-99.99899883928242
sI6
F-99.99999890561658
sI7
F75.20006613488096
ssS'B00A0BABA'
p529
(dp530
I2
F-4.0
sI3
F-3.9999906253757778
sI5
F-3.9999991556677044
ssS'BA0ABABB0'
p531
(dp532
I9
F-100.0
sI3
F-100.0
ssS'BAB0B000A'
p533
(dp534
I8
F-95.57641268263504
sI4
F-99.98530294772928
sI6
F-99.99995026192227
sI7
F13.643857944006378
ssS'0BAAB0BA0'
p535
(dp536
I1
F-4.0
sI6
F15.231940487958724
sI9
F-3.999651925378921
ssS'BABA00B00'
p537
(dp538
I8
F-62.197288674268336
sI9
F-32.79943341959816
sI5
F80.0
sI6
F-96.16066931364134
ssS'0BAA0BBA0'
p539
(dp540
I1
F-4.0
sI5
F-4.0
sI9
F-4.0
ssS'0B0000BAA'
p541
(dp542
I1
F-0.40268837823952364
sI3
F-3.195673537692554
sI4
F-72.14045041769486
sI5
F-31.837344803487216
sI6
F-69.83934956970822
ssS'0AB0BBA00'
p543
(dp544
I8
F-100.0
sI1
F-99.99098912259997
sI4
F-99.9931109495989
sI9
F32.07630038103041
ssS'AA0A0B0BB'
p545
(dp546
I3
F100.0
sI5
F-99.9980317
sI7
F99.999822853
ssS'AB0A0000B'
p547
(dp548
I8
F10.03233360202979
sI3
F21.743097877453472
sI5
F80.0
sI6
F80.0
sI7
F100.0
ssS'0BBABAA0B'
p549
(dp550
I8
F-100.0
sI1
F100.0
ssS'B000B00A0'
p551
(dp552
I2
F-79.55546705027884
sI3
F-89.66799963599686
sI4
F-99.99999999999552
sI6
F-99.86041097732645
sI7
F-96.59522319152124
sI9
F-77.43089587736675
ssS'0BAB0000A'
p553
(dp554
I8
F80.0
sI1
F80.0
sI5
F80.0
sI6
F100.0
sI7
F80.0
ssS'0BAB0BA0A'
p555
(dp556
I8
F99.99999999999923
sI1
F-98.64462171769583
sI5
F100.0
ssS'BAB0B00A0'
p557
(dp558
I9
F-99.99677590995522
sI4
F-99.99999999999882
sI6
F-99.9999173314
sI7
F27.327530590722972
ssS'BABAAB0BA'
p559
(dp560
I7
F-5.0
ssS'B0A00B0A0'
p561
(dp562
I9
F79.98565852094647
sI2
F-40.32449802828859
sI4
F-1.108319727324969
sI5
F79.99999349516216
sI7
F80.0
ssS'BAA000BBA'
p563
(dp564
I4
F20.70688892856068
sI5
F-79.29524288619191
sI6
F100.0
ssS'BAB0A0AB0'
p565
(dp566
I9
F-4.0
sI4
F-3.9957628083966563
sI6
F-3.996141288284268
ssS'A0BA0A0BB'
p567
(dp568
I2
F-87.63834429255894
sI5
F100.0
sI7
F99.99999999990585
ssS'BBA00BA00'
p569
(dp570
I8
F80.0
sI9
F80.0
sI4
F-79.883636277942
sI5
F100.0
ssS'BAAB0B00A'
p571
(dp572
I8
F-99.99999956953279
sI5
F-99.99993303831529
sI7
F-62.19993249604502
ssS'A0ABA0BB0'
p573
(dp574
I9
F100.0
sI2
F100.0
sI6
F-96.49787913999904
ssS'0B00BAA00'
p575
(dp576
I8
F9.820615241207541
sI1
F75.14133372255944
sI3
F-85.99673742951246
sI4
F-88.6569381999999
sI9
F-99.99751994068191
ssS'AABBB0000'
p577
(dp578
I8
F-99.99971407246379
sI9
F-99.99972376837069
sI6
F-93.9030111131333
sI7
F-99.4066911131275
ssS'B0ABB0A0A'
p579
(dp580
I8
F100.0
sI2
F-98.97939999548802
sI6
F100.0
ssS'0A00BBBAA'
p581
(dp582
I1
F-99.99999996125796
sI3
F-99.43657407070475
sI4
F-98.17089262005152
ssS'0AB00BBA0'
p583
(dp584
I1
F-57.76830202203445
sI4
F-99.90484838914978
sI5
F100.0
sI9
F79.88036659466108
ssS'A0B000000'
p585
(dp586
I2
F-54.44385722339216
sI4
F64.0000198405917
sI5
F57.74908234834146
sI6
F12.34988187161286
sI7
F65.3104002278506
sI8
F49.644216487768446
sI9
F64.0000198404777
ssS'B0ABB000A'
p587
(dp588
I8
F-99.90717078000587
sI2
F-99.99999998523688
sI6
F100.0
sI7
F-99.99150203508998
ssS'A0BBB0AA0'
p589
(dp590
I9
F100.0
sI2
F-99.98530239574771
sI6
F-3.9999999234503685
ssS'B0A00A0BB'
p591
(dp592
I2
F-99.99999933019396
sI4
F-99.99977498202868
sI5
F-88.65997991020899
sI7
F-99.99968918586792
ssS'ABBAAB0B0'
p593
(dp594
I9
F100.0
sI7
F100.0
ssS'BB0BAAABA'
p595
(dp596
I3
F100.0
ssS'A00BBA00B'
p597
(dp598
I8
F-4.0
sI2
F-3.999997104845266
sI3
F54.84286520230672
sI7
F-4.0
ssS'BB0000BAA'
p599
(dp600
I3
F-99.99997843579744
sI4
F-93.9519989489695
sI5
F-99.99999768907033
sI6
F-99.99997920495241
ssS'ABBB0000A'
p601
(dp602
I8
F80.0
sI5
F100.0
sI6
F-69.61284804764801
sI7
F80.0
ssS'AABB0AB0B'
p603
(dp604
I8
F-100.0
sI5
F-100.0
ssS'B0BA0AB0A'
p605
(dp606
I8
F-99.99994685589999
sI2
F-50.551063592679995
sI5
F100.0
ssS'ABA00BA0B'
p607
(dp608
I8
F80.0
sI4
F100.0
sI5
F100.0
ssS'AABBAABB0'
p609
(dp610
I9
F100.0
ssS'AB0BB0A00'
p611
(dp612
I8
F-99.99997988548486
sI9
F-99.99999995074005
sI3
F-99.99999255756389
sI6
F-26.751996409085727
ssS'B00A000B0'
p613
(dp614
I2
F-3.1951939433487433
sI3
F-17.215576843639916
sI5
F-2.226151925422988
sI6
F-79.37317884877324
sI7
F-37.04703276101224
sI9
F-73.28871356231046
ssS'A00BBA000'
p615
(dp616
I8
F-3.1107754103275105
sI9
F9.927892863123848
sI2
F55.5121188526826
sI3
F80.0
sI7
F30.376517384001545
ssS'AA0ABBB00'
p617
(dp618
I8
F30.42289859353417
sI9
F-99.59849806800892
sI3
F100.0
ssS'A00B0BB0A'
p619
(dp620
I8
F42.108143466576564
sI2
F-58.786192075854956
sI3
F-99.9607070369223
sI5
F100.0
ssS'AABBB000A'
p621
(dp622
I8
F-99.99999999990585
sI6
F-99.99999646201718
sI7
F-99.99426792653344
ssS'00AB0BAAB'
p623
(dp624
I1
F37.35158000353496
sI2
F-49.43212588735227
sI5
F100.0
ssS'ABBAABB00'
p625
(dp626
I8
F-100.0
sI9
F100.0
ssS'ABBB00A00'
p627
(dp628
I8
F-3.8570847511901722
sI9
F80.0
sI5
F1.2920008437388333
sI6
F-4.0
ssS'AB00BAB00'
p629
(dp630
I8
F-99.9999997005651
sI9
F29.402223205220295
sI3
F-99.99999991321744
sI4
F-99.99999972026484
ssS'0AB00BBAA'
p631
(dp632
I1
F-96.49447876453131
sI4
F-95.48549285589999
sI5
F100.0
ssS'00BA0BABA'
p633
(dp634
I1
F100.0
sI2
F-2.2266271402230595
sI5
F78.35142644
ssS'BABABBA0A'
p635
(dp636
I8
F100.0
ssS'00B0B00A0'
p637
(dp638
I1
F-99.95395917453678
sI2
F-99.80596461305754
sI4
F-96.16244651536061
sI6
F-93.01254399980289
sI7
F-79.92533622063924
sI9
F-99.99999814186886
ssS'A00B0A00B'
p639
(dp640
I8
F-3.19906647023945
sI2
F0.41413805200911114
sI3
F-3.1571522369622764
sI5
F-2.82743476312244
sI7
F-3.199999815595096
ssS'AABBB0A0B'
p641
(dp642
I8
F-100.0
sI6
F-5.0
ssS'A0BBB0AAB'
p643
(dp644
I2
F-100.0
sI6
F-5.0
ssS'B0BAA0A0B'
p645
(dp646
I8
F-100.0
sI2
F26.30866060078415
sI6
F100.0
ssS'AB00A000B'
p647
(dp648
I8
F6.891604590451344
sI3
F-3.058476793226015
sI4
F80.0
sI6
F19.67909950529809
sI7
F80.0
ssS'A0ABB0B0A'
p649
(dp650
I8
F-99.98850906459998
sI2
F100.0
sI6
F100.0
ssS'0AAABBBB0'
p651
(dp652
I1
F100.0
sI9
F-5.0
ssS'00BBAABA0'
p653
(dp654
I1
F80.0
sI2
F100.0
sI9
F37.34106288116317
ssS'ABBB0A0AB'
p655
(dp656
I5
F-5.0
sI7
F-5.0
ssS'0BA000BAB'
p657
(dp658
I1
F-4.0
sI4
F-4.0
sI5
F-4.0
sI6
F-62.600109548
ssS'A0000B000'
p659
(dp660
I2
F29.881081088199576
sI3
F64.00823868751517
sI4
F23.317864226251622
sI5
F64.0
sI7
F64.4022400816
sI8
F59.9118206372536
sI9
F48.68563682679781
ssS'BA0ABBAB0'
p661
(dp662
I9
F-5.0
sI3
F-100.0
ssS'00ABABBAB'
p663
(dp664
I1
F-5.0
sI2
F100.0
ssS'BB000A00A'
p665
(dp666
I8
F79.90740198220203
sI3
F100.0
sI4
F79.99150371173184
sI5
F-83.80277627040067
sI7
F-58.38815637775981
ssS'00A0BAB00'
p667
(dp668
I8
F10.672800846539076
sI1
F80.0
sI2
F80.0
sI4
F-68.41019886918193
sI9
F100.0
ssS'000BABBAA'
p669
(dp670
I1
F100.0
sI2
F100.0
sI3
F-99.9081459307891
ssS'A0B0A00B0'
p671
(dp672
I9
F100.0
sI2
F-77.84333254618844
sI4
F80.0
sI6
F80.0
sI7
F80.0
ssS'AB00B0A0B'
p673
(dp674
I8
F13.684022813587283
sI3
F-99.69354220006825
sI4
F100.0
sI6
F-78.02557977593302
ssS'AA0BB0BAB'
p675
(dp676
I3
F100.0
sI6
F-100.0
ssS'00BA00BAB'
p677
(dp678
I1
F-99.99999933038434
sI2
F-99.99999819203772
sI5
F26.00826867239121
sI6
F-99.99150210027358
ssS'BB0AABA0B'
p679
(dp680
I8
F-100.0
sI3
F100.0
ssS'AAB0B0AB0'
p681
(dp682
I9
F54.8038700620301
sI4
F100.0
sI6
F13.64000032904962
ssS'0B0B0A000'
p683
(dp684
I1
F-3.1904753930221847
sI3
F-30.85295065299664
sI5
F-20.490362975887827
sI7
F14.931828359362683
sI8
F-74.14368596073876
sI9
F23.444848415338853
ssS'BB0ABAA00'
p685
(dp686
I8
F-99.99999999997175
sI9
F-99.99999999990585
sI3
F-99.99999999990585
ssS'0BBAB0A0A'
p687
(dp688
I8
F99.99999999999977
sI1
F100.0
sI6
F-99.99999999999923
ssS'ABBB0ABAA'
p689
(dp690
I5
F100.0
ssS'BA0BAB00A'
p691
(dp692
I8
F100.0
sI3
F30.737067713426896
sI7
F79.999527608
ssS'B00ABA000'
p693
(dp694
I8
F-83.49258907810685
sI9
F-36.2625607542781
sI2
F-99.99659534596782
sI3
F-99.69300831589312
sI7
F-99.99999999992013
ssS'A0000000B'
p695
(dp696
I2
F0.544331094728296
sI3
F64.00000600036216
sI4
F-34.8551808439542
sI5
F4.656637875794154
sI6
F13.70325366210045
sI7
F64.0000000001277
sI8
F13.65224889315332
ssS'AB0BB000A'
p697
(dp698
I8
F-99.98979398478738
sI3
F-99.97244199202704
sI6
F-81.79749969076937
sI7
F-99.99751992684145
ssS'BAA0BBBA0'
p699
(dp700
I9
F-100.0
sI4
F-100.0
ssS'0000BABBA'
p701
(dp702
I1
F-50.84850287042343
sI2
F75.16861908145036
sI3
F100.0
sI4
F-99.96964729697234
ssS'0B0A0AB00'
p703
(dp704
I8
F4.288192094778886
sI1
F-31.292908560410822
sI3
F79.99999999360547
sI5
F100.0
sI9
F79.99999999916305
ssS'0BA0A00B0'
p705
(dp706
I1
F80.0
sI4
F80.0
sI9
F80.0
sI6
F80.0
sI7
F100.0
ssS'ABA0B0A0B'
p707
(dp708
I8
F-3.999999997765238
sI4
F100.0
sI6
F-79.7910111999943
ssS'BAABAB0BA'
p709
(dp710
I7
F100.0
ssS'AB00BABA0'
p711
(dp712
I9
F-88.62417694
sI3
F-2.4073753735299688
sI4
F-99.78718860734215
ssS'BA0A00BB0'
p713
(dp714
I9
F-4.0
sI3
F-12.076044177255401
sI5
F-96.5931816249079
sI6
F-88.64324025954355
ssS'B0A0B0A00'
p715
(dp716
I8
F-99.9999797483826
sI9
F80.0
sI2
F-90.74601416982884
sI4
F-99.9999997040253
sI6
F-88.65997986267962
ssS'000AAB0B0'
p717
(dp718
I1
F80.0
sI2
F-16.219305554578533
sI3
F37.065355936842906
sI9
F12.311664251854747
sI7
F80.0
ssS'00AABBBA0'
p719
(dp720
I1
F-3.9999895285272253
sI2
F72.44000084371618
sI9
F-4.0
ssS'0A000BAB0'
p721
(dp722
I1
F80.0
sI3
F79.98439369515687
sI4
F31.631986529695816
sI5
F79.99609573226232
sI9
F59.736112997061895
ssS'A00BBA0B0'
p723
(dp724
I9
F-85.98979345721554
sI2
F60.09315736306741
sI3
F-99.99997991097739
sI7
F-99.40669111321779
ssS'000ABB0AB'
p725
(dp726
I1
F-99.97244380000001
sI2
F-100.0
sI3
F-99.83658486021652
sI7
F-99.99173313428865
ssS'AB0BBABAA'
p727
(dp728
I3
F100.0
ssS'00A00BB0A'
p729
(dp730
I8
F-60.38730746216433
sI1
F80.0
sI2
F15.85722012454432
sI4
F-3.1897123481699423
sI5
F57.126680962030704
ssS'AB0000A0B'
p731
(dp732
I8
F0.27091602334454823
sI3
F80.0
sI4
F100.0
sI5
F80.0
sI6
F22.73247489713114
ssS'00BB0AAAB'
p733
(dp734
I1
F-4.0
sI2
F1.293157459170681
sI5
F-3.982124361045053
ssS'BABBBAA00'
p735
(dp736
I8
F-100.0
sI9
F-5.0
ssS'BA0AA0BB0'
p737
(dp738
I9
F1.2920312489155013
sI3
F-93.40286026973082
sI6
F100.0
ssS'0BBA0AA0B'
p739
(dp740
I8
F26.009017131529163
sI1
F100.0
sI5
F99.99999999997175
ssS'0000AAB0B'
p741
(dp742
I8
F80.0
sI1
F5.5607472685770425
sI2
F-96.47858370547239
sI3
F26.00074401872736
sI4
F100.0
ssS'A00BBA0BA'
p743
(dp744
I2
F-3.999990524614282
sI3
F100.0
sI7
F-32.799999902079804
ssS'A00B0B0AB'
p745
(dp746
I2
F-62.17244304433045
sI3
F-99.9942606414119
sI5
F-99.99338270738951
sI7
F-99.99601669752992
ssS'0BB00A00A'
p747
(dp748
I8
F-99.99977679260662
sI1
F-41.49433545616348
sI4
F-99.90812591144822
sI5
F-95.54984379851263
sI7
F-99.9923080134976
ssS'0AAB0BBA0'
p749
(dp750
I1
F100.0
sI5
F99.757
sI9
F-99.999822853
ssS'AB0000ABB'
p751
(dp752
I3
F26.317969168742877
sI4
F100.0
sI5
F80.0
sI6
F29.25823536251052
ssS'BA00A0BBA'
p753
(dp754
I3
F-99.9986740804136
sI4
F-3.999968728488875
sI6
F-62.19903095477319
ssS'AB00BABAB'
p755
(dp756
I3
F-5.0
sI4
F-100.0
ssS'BA0A00BBA'
p757
(dp758
I3
F-3.987108915112649
sI5
F60.106374349107845
sI6
F80.0
ssS'A0B0ABB00'
p759
(dp760
I8
F-99.87200484440771
sI9
F100.0
sI2
F-98.94252062825842
sI4
F30.545486123893767
ssS'0B0A0BABA'
p761
(dp762
I1
F100.0
sI3
F-96.58718430758883
sI5
F79.99999999974895
ssS'BA00BAB0A'
p763
(dp764
I8
F-99.99999956953279
sI3
F100.0
sI4
F-99.9716734845138
ssS'BABA000BA'
p765
(dp766
I5
F-3.999999999995017
sI6
F-3.999990549260328
sI7
F-4.0
ssS'A00BAAB0B'
p767
(dp768
I8
F-3.999999999983381
sI2
F-99.96169687721117
sI3
F-99.99855503758717
ssS'BAB00B0A0'
p769
(dp770
I9
F80.0
sI4
F-91.35636256587848
sI5
F100.0
sI7
F-47.335810980643615
ssS'0B0B0A0A0'
p771
(dp772
I1
F-3.1961026257744334
sI3
F-1.4098345771286849
sI9
F80.0
sI5
F-74.95865858244055
sI7
F6.712499235151084
ssS'BA0A0BBAB'
p773
(dp774
I3
F-100.0
sI5
F100.0
ssS'0AB0BA0BA'
p775
(dp776
I1
F-79.83998919934827
sI4
F-73.62830719071746
sI7
F-4.0
ssS'A00ABA0BB'
p777
(dp778
I2
F-84.85340500002056
sI3
F-99.999822853
sI7
F100.0
ssS'BB0AABA00'
p779
(dp780
I8
F26.00009314147418
sI9
F-99.99676968621367
sI3
F100.0
ssS'B00AA0BB0'
p781
(dp782
I9
F-2.4123563041308502
sI2
F-98.17693452275772
sI3
F-98.67321997394632
sI6
F100.0
ssS'0BAAABB00'
p783
(dp784
I8
F-4.0
sI1
F-2.412397180763523
sI9
F-2.4123970888945006
ssS'BB0AABBAA'
p785
(dp786
I3
F-5.0
ssS'BBAABB0A0'
p787
(dp788
I9
F-5.0
sI7
F-100.0
ssS'B00ABA0B0'
p789
(dp790
I9
F-99.98783940344848
sI2
F-99.96255746898547
sI3
F-99.97140725081408
sI7
F-99.96503665927344
ssS'ABBBBAAA0'
p791
(dp792
I9
F100.0
ssS'0ABABB000'
p793
(dp794
I8
F-99.99999999985356
sI1
F-100.0
sI9
F-99.99999678514175
sI7
F-60.38520318834077
ssS'B00A0ABB0'
p795
(dp796
I9
F80.0
sI2
F-96.28324263896339
sI3
F-84.8238302691802
sI5
F100.0
ssS'BAA0BB000'
p797
(dp798
I8
F-99.99999253617604
sI9
F-73.79199678578105
sI4
F-99.9999642507001
sI7
F-99.99996700532898
ssS'BABA0AB00'
p799
(dp800
I8
F-87.31706535999999
sI9
F-96.19668878051723
sI5
F100.0
ssS'B0B0BAA00'
p801
(dp802
I8
F-99.99999945761036
sI9
F-32.79993295165181
sI2
F-99.99999678584483
sI4
F-99.99999933038433
ssS'B0AA0B0BA'
p803
(dp804
I2
F-3.999999998450225
sI5
F54.801157367234104
sI7
F-3.9998958369488906
ssS'BAAB00AB0'
p805
(dp806
I9
F80.0
sI5
F100.0
sI6
F79.99999999992468
ssS'0BABBABA0'
p807
(dp808
I1
F-5.0
sI9
F100.0
ssS'A0B00AB00'
p809
(dp810
I8
F-99.99224395250502
sI9
F-99.99893908995504
sI2
F15.231517068054245
sI4
F-99.9631815619547
sI5
F80.0
ssS'AABB0ABB0'
p811
(dp812
I9
F-100.0
sI5
F-100.0
ssS'0AB00AABB'
p813
(dp814
I1
F60.14776929773187
sI4
F80.0
sI5
F-3.999547768510997
ssS'00AB0000B'
p815
(dp816
I1
F55.59606696661134
sI2
F-76.06623466228545
sI5
F-77.35141057941824
sI6
F-63.023358276920156
sI7
F-64.14283352057001
sI8
F-24.907059269374784
ssS'B0BB0A00A'
p817
(dp818
I8
F-96.50607887571736
sI2
F-12.624739993265202
sI5
F-85.50849023303329
sI7
F-98.9490573367563
ssS'B00AA0B00'
p819
(dp820
I8
F80.0
sI9
F9.760899179289016
sI2
F80.0
sI3
F55.04904808627732
sI6
F100.0
ssS'0BABAA0B0'
p821
(dp822
I1
F79.99998724536329
sI9
F99.99998405677
sI7
F100.0
ssS'0BB00AA0B'
p823
(dp824
I8
F-6.541558335779609
sI1
F13.640010218580287
sI4
F-99.89633621635794
sI5
F-99.97230934876333
ssS'BA000ABBA'
p825
(dp826
I3
F100.0
sI4
F79.98250397179578
sI5
F27.33775490618899
ssS'BA0AA0B0B'
p827
(dp828
I8
F100.0
sI3
F-49.43783163060215
sI6
F99.99998405677
ssS'000B0BABA'
p829
(dp830
I1
F79.90467606851333
sI2
F-5.814534233097736
sI3
F38.78941631581333
sI5
F80.0
ssS'ABA0BBA00'
p831
(dp832
I8
F-98.9510918991273
sI9
F-100.0
sI4
F100.0
ssS'AB0A0BBA0'
p833
(dp834
I9
F13.640009450609199
sI3
F-3.9999212669152224
sI5
F-3.9999679073618726
ssS'0BA0AABB0'
p835
(dp836
I1
F30.422607840299932
sI4
F100.0
sI9
F99.99999998837738
ssS'0AB00B000'
p837
(dp838
I1
F-99.6218746769695
sI4
F-99.31717892838594
sI5
F-99.97169797450842
sI7
F-99.99999932083843
sI8
F-99.99922999610905
sI9
F-61.93411606492651
ssS'BABA0BBAA'
p839
(dp840
I5
F100.0
ssS'AAB00B0BA'
p841
(dp842
I4
F80.0
sI5
F100.0
sI7
F80.0
ssS'ABA0BABAB'
p843
(dp844
I4
F-5.0
ssS'BAA0ABBBA'
p845
(dp846
I4
F-5.0
ssS'BB0AAB0AB'
p847
(dp848
I3
F-5.0
sI7
F-100.0
ssS'A0B000B00'
p849
(dp850
I2
F-99.88195216051798
sI4
F-98.79047521251235
sI5
F-31.572410461468984
sI6
F-96.97388199228446
sI8
F-99.99907545586882
sI9
F-99.99977498668805
ssS'BAABB0AB0'
p851
(dp852
I9
F-100.0
sI6
F-100.0
ssS'0BAB0B0A0'
p853
(dp854
I1
F-97.42710698087944
sI9
F-95.62374171718955
sI5
F56.57334945391489
sI7
F-99.87705524313145
ssS'B00A000AB'
p855
(dp856
I2
F-95.51981792822461
sI3
F-99.61303617866959
sI5
F80.0
sI6
F-95.1984192746912
sI7
F-99.61365758865223
ssS'BBAA0BBA0'
p857
(dp858
I9
F-5.0
sI5
F-5.0
ssS'0A0B00B00'
p859
(dp860
I1
F64.00006845625259
sI3
F-99.96897384853803
sI5
F-99.66361511262222
sI6
F-62.972841414854706
sI8
F-99.6011995347182
sI9
F-98.67191117217594
ssS'B0AB0AABB'
p861
(dp862
I2
F-100.0
sI5
F100.0
ssS'ABAABBBA0'
p863
(dp864
I9
F-5.0
ssS'00BA00BA0'
p865
(dp866
I1
F-85.40061440445895
sI2
F-99.90710928265754
sI5
F80.0
sI6
F-88.65674427436552
sI9
F-99.9993206825893
ssS'AB0BAB0A0'
p867
(dp868
I9
F100.0
sI3
F79.99998722236685
sI7
F79.9947512
ssS'BB0AAB0A0'
p869
(dp870
I9
F-79.8399642869534
sI3
F-2.4123971801644783
sI7
F-58.4910739629875
ssS'AB00BAB0A'
p871
(dp872
I8
F-95.23480915015818
sI3
F100.0
sI4
F-99.99999998837738
ssS'A0BB0BBAA'
p873
(dp874
I2
F-100.0
sI5
F100.0
ssS'B000AAB0B'
p875
(dp876
I8
F26.306201951089065
sI2
F-99.99999924568334
sI3
F-88.35381819203675
sI4
F100.0
ssS'00AA0BABB'
p877
(dp878
I1
F100.0
sI2
F79.99999999992326
sI5
F99.99999999999153
ssS'000B0ABA0'
p879
(dp880
I1
F64.0
sI2
F-99.99990406039917
sI3
F-62.199998187535286
sI5
F26.000760757388207
sI9
F-85.42837382481848
ssS'0AA00BBAB'
p881
(dp882
I1
F100.0
sI4
F79.99999965562623
sI5
F99.9999999996862
ssS'0ABABAABB'
p883
(dp884
I1
F100.0
ssS'B0AB0AAB0'
p885
(dp886
I9
F100.0
sI2
F79.99999999999937
sI5
F99.99999998837738
ssS'A0AB0BABB'
p887
(dp888
I2
F100.0
sI5
F100.0
ssS'AABB00ABB'
p889
(dp890
I5
F-100.0
sI6
F-5.0
ssS'0AAB00BB0'
p891
(dp892
I1
F100.0
sI5
F-62.10813979426466
sI6
F26.008511962970175
sI9
F64.85921541326428
ssS'00BA0B00A'
p893
(dp894
I8
F67.75490633722988
sI1
F80.0
sI2
F63.980952206641476
sI5
F3.3287710684299263
sI7
F79.99984042539661
ssS'0BBAAB000'
p895
(dp896
I8
F-99.9999173314
sI1
F-99.99997973404632
sI9
F26.091854048815946
sI7
F-99.99999999999999
ssS'BABA0BBA0'
p897
(dp898
I9
F-100.0
sI5
F100.0
ssS'ABABBAA0B'
p899
(dp900
I8
F-5.0
ssS'00B00BA0A'
p901
(dp902
I8
F100.0
sI1
F80.0
sI2
F64.09170362380641
sI4
F80.0
sI5
F80.0
ssS'BAA0ABBB0'
p903
(dp904
I9
F-100.0
sI4
F-100.0
ssS'0A00BAB00'
p905
(dp906
I8
F-99.42726396513743
sI1
F-57.34000016355343
sI3
F80.0
sI4
F-88.18959460332411
sI9
F-99.69278340316718
ssS'AA0BA0BB0'
p907
(dp908
I9
F99.99999996125796
sI3
F100.0
sI6
F-46.10260126237377
ssS'A0BA0BBBA'
p909
(dp910
I2
F-100.0
sI5
F100.0
ssS'BB0A00AB0'
p911
(dp912
I9
F-99.99593473915155
sI3
F-95.57730434101869
sI5
F-99.961385866549
sI6
F-99.99173238604085
ssS'AB0AB000B'
p913
(dp914
I8
F-2.251280887308833
sI3
F-79.72685412016004
sI6
F-98.2754943526402
sI7
F100.0
ssS'BABBB0AA0'
p915
(dp916
I9
F100.0
sI6
F-100.0
ssS'0A000BBA0'
p917
(dp918
I1
F80.0
sI3
F79.99999877959321
sI4
F54.49904590815956
sI5
F100.0
sI9
F-62.1456171657763
ssS'A0A00BB0B'
p919
(dp920
I8
F1.9685421311949742
sI2
F100.0
sI4
F26.004430268968378
sI5
F-99.95005529987142
ssS'AB0BABAB0'
p921
(dp922
I9
F100.0
sI3
F100.0
ssS'0BB00AA00'
p923
(dp924
I8
F-99.99684543927415
sI1
F67.45072055016996
sI4
F-58.36134401740678
sI5
F-99.71917327475614
sI9
F-99.86897339964342
ssS'BB0BAA0A0'
p925
(dp926
I9
F-99.9999985651093
sI3
F-99.9999799110853
sI7
F-99.99970927618081
ssS'B0AA0000B'
p927
(dp928
I8
F14.833403816720732
sI2
F-98.6878051523026
sI5
F80.0
sI6
F-84.83159202895492
sI7
F-62.197493268421894
ssS'00BA00BBA'
p929
(dp930
I1
F-99.89912832161764
sI2
F-91.36052685759496
sI5
F80.0
sI6
F-95.14907987362255
ssS'A00B0BABA'
p931
(dp932
I2
F-49.803284358972334
sI3
F-96.59718221977175
sI5
F100.0
ssS'0B0AAB000'
p933
(dp934
I8
F-20.767977266744353
sI1
F80.0
sI3
F-1.3946105159608486
sI9
F58.144453332029094
sI7
F80.0
ssS'0ABBAB0BA'
p935
(dp936
I1
F100.0
sI7
F-5.0
ssS'00AB0B0A0'
p937
(dp938
I1
F-47.06576127707015
sI2
F-58.67662420015817
sI9
F35.12130950880346
sI5
F80.0
sI7
F-60.841144
ssS'B0B0BAA0A'
p939
(dp940
I8
F100.0
sI2
F1.4360441728411288
sI4
F-73.79199999765682
ssS'AA0B0BA0B'
p941
(dp942
I8
F-99.99994685589999
sI3
F100.0
sI5
F-99.99114265
ssS'AAB00000B'
p943
(dp944
I8
F-99.84778751369636
sI4
F-88.65693819999903
sI5
F-96.29181998531126
sI6
F-2.574114005501074
sI7
F-99.68555313999904
ssS'0A0BBA0AB'
p945
(dp946
I1
F13.640000843721296
sI3
F-99.99970966878399
sI7
F-99.99996428714577
ssS'0B0AAB0B0'
p947
(dp948
I1
F80.0
sI3
F54.842908888924434
sI9
F-3.998842639599853
sI7
F80.0
ssS'B0BAB0A0A'
p949
(dp950
I8
F100.0
sI2
F1.292000000184526
sI6
F-32.75097548714581
ssS'AAB0BB00A'
p951
(dp952
I8
F-100.0
sI4
F-99.99173313998932
sI7
F-99.99173309114943
ssS'0ABA0BAB0'
p953
(dp954
I1
F100.0
sI5
F-97.4125776182293
sI9
F15.245822187838762
ssS'BA00ABAB0'
p955
(dp956
I9
F60.10496482902732
sI3
F100.0
sI4
F-3.9571345447777113
ssS'BBA0B00A0'
p957
(dp958
I9
F80.0
sI4
F-93.9519607837355
sI6
F27.020823206537997
sI7
F-99.99999998523688
ssS'B00B0BAA0'
p959
(dp960
I9
F100.0
sI2
F-83.80833986418813
sI3
F76.50366521773825
sI5
F80.0
ssS'AB00AA0BB'
p961
(dp962
I3
F-96.55864037150049
sI4
F100.0
sI7
F79.99999965562479
ssS'0AB0BA000'
p963
(dp964
I8
F-99.99248478002507
sI1
F-79.66686908862971
sI4
F-99.99555412465226
sI9
F-99.42868604010717
sI7
F-1.9657589056
ssS'BAABAB000'
p965
(dp966
I8
F100.0
sI9
F-99.99751994056308
sI7
F100.0
ssS'0A0BA000B'
p967
(dp968
I8
F100.0
sI1
F80.0
sI3
F80.0
sI6
F-3.1926345428057403
sI7
F80.0
ssS'A00BABABB'
p969
(dp970
I2
F-100.0
sI3
F100.0
ssS'000B0BAAB'
p971
(dp972
I1
F-99.99961696880527
sI2
F-99.99968958201555
sI3
F-99.99968115459653
sI5
F-99.99970138701768
ssS'0A0B0BBAA'
p973
(dp974
I1
F30.73073936983856
sI3
F-99.757
sI5
F100.0
ssS'AA00B0B00'
p975
(dp976
I8
F-61.17908716194199
sI9
F-88.65751970958328
sI3
F100.0
sI4
F-99.96996301640502
sI6
F-99.99999999827136
ssS'AA0ABBBBA'
p977
(dp978
I3
F100.0
ssS'0A0AABBB0'
p979
(dp980
I1
F-99.99999999999997
sI3
F-99.99988095721595
sI9
F-3.982935363695467
ssS'0AA00B0B0'
p981
(dp982
I1
F100.0
sI9
F4.2756537694260786
sI4
F39.95860809182403
sI5
F80.0
sI7
F80.0
ssS'A00ABB0BA'
p983
(dp984
I2
F80.0
sI3
F-98.97937810340167
sI7
F100.0
ssS'00B0AABAB'
p985
(dp986
I1
F79.99999999992468
sI2
F99.99999999999746
sI4
F100.0
ssS'BBABA00A0'
p987
(dp988
I9
F-99.68547834217722
sI6
F-99.6938197720716
sI7
F100.0
ssS'B0BA0BA0A'
p989
(dp990
I8
F100.0
sI2
F-3.856737467194071
sI5
F-79.82342584460358
ssS'BB0A0A0B0'
p991
(dp992
I9
F-57.7498151572277
sI3
F-88.22336416079216
sI5
F100.0
sI7
F-61.16790906457176
ssS'00B0A00BA'
p993
(dp994
I1
F100.0
sI2
F1.0547683333920528
sI4
F80.0
sI6
F80.0
sI7
F-0.9663466328574302
ssS'0AABB0ABB'
p995
(dp996
I1
F100.0
sI6
F-100.0
ssS'0000B0AAB'
p997
(dp998
I1
F-3.199990712632141
sI2
F-85.9999899430324
sI3
F-99.3149678460384
sI4
F-99.69307593377434
sI6
F-99.95060295999738
ssS'ABBAAB000'
p999
(dp1000
I8
F-99.97222041728836
sI9
F100.0
sI7
F100.0
ssS'0B00A00BA'
p1001
(dp1002
I1
F100.0
sI3
F80.0
sI4
F80.0
sI6
F80.0
sI7
F80.0
ssS'0BAAABBAB'
p1003
(dp1004
I1
F-5.0
ssS'AA0B0BBAB'
p1005
(dp1006
I3
F100.0
sI5
F100.0
ssS'A0BBAABAB'
p1007
(dp1008
I2
F100.0
ssS'BB0B0AA0A'
p1009
(dp1010
I8
F99.9980317
sI3
F100.0
sI5
F-83.894505536296
ssS'ABBA0ABBA'
p1011
(dp1012
I5
F100.0
ssS'A000AB0BB'
p1013
(dp1014
I2
F-99.99999999996442
sI3
F-88.55987913999999
sI4
F-98.97691994199904
sI7
F-99.9999999994753
ssS'B0BABBAA0'
p1015
(dp1016
I9
F100.0
sI2
F-100.0
ssS'A0BBAAABB'
p1017
(dp1018
I2
F-5.0
ssS'AB0B0B0A0'
p1019
(dp1020
I9
F-88.56813739508823
sI3
F-99.77245522708522
sI5
F-3.9999990776125904
sI7
F-95.79062540776495
ssS'000BAB000'
p1021
(dp1022
I1
F64.00000178694444
sI2
F64.0000662999407
sI3
F64.00816481880321
sI7
F64.00000595648886
sI8
F64.00000053584616
sI9
F64.00002169312215
ssS'ABBAA00BB'
p1023
(dp1024
I6
F100.0
sI7
F100.0
ssS'BABBBA0AA'
p1025
(dp1026
I7
F100.0
ssS'A00B0BBAA'
p1027
(dp1028
I2
F-49.82782126302155
sI3
F-95.15180233856836
sI5
F100.0
ssS'0BBB0A0AA'
p1029
(dp1030
I1
F79.9999999999999
sI5
F-87.29680644999999
sI7
F100.0
ssS'B0ABAB0A0'
p1031
(dp1032
I9
F38.6975617102907
sI2
F99.99994685589999
sI7
F100.0
ssS'ABBBB0AA0'
p1033
(dp1034
I9
F100.0
sI6
F-5.0
ssS'0A00BB0AB'
p1035
(dp1036
I1
F-99.99997332340853
sI3
F-99.99992520340578
sI4
F-99.99991507949333
sI7
F-99.99999999999977
ssS'0B0A0ABAB'
p1037
(dp1038
I1
F-3.95674387255976
sI3
F60.136404668289664
sI5
F100.0
ssS'BB00AAAB0'
p1039
(dp1040
I9
F76.58896266321548
sI3
F100.0
sI4
F99.99994685589999
ssS'AABA000BB'
p1041
(dp1042
I5
F-99.97813
sI6
F64.11710406482426
sI7
F100.0
ssS'BAABAB00B'
p1043
(dp1044
I8
F100.0
sI7
F100.0
ssS'AA00B0B0B'
p1045
(dp1046
I8
F-99.59263827885067
sI3
F100.0
sI4
F-99.68552697615944
sI6
F-98.96767976457916
ssS'000B0BAA0'
p1047
(dp1048
I1
F-60.76204816950505
sI2
F-46.122182234102866
sI3
F-95.14827305058623
sI5
F80.0
sI9
F100.0
ssS'B000A00B0'
p1049
(dp1050
I2
F-3.1960487108764277
sI3
F-78.78846329679246
sI4
F-3.197027834644774
sI6
F72.51250696710129
sI7
F-3.1999999993359602
sI9
F-3.197822094620792
ssS'BBABB00AA'
p1051
(dp1052
I6
F100.0
sI7
F100.0
ssS'AB0A000BB'
p1053
(dp1054
I3
F-99.99999392412998
sI5
F68.55964985942312
sI6
F-88.62921309181415
sI7
F100.0
ssS'B00AB0A00'
p1055
(dp1056
I8
F-62.19751994198924
sI9
F14.276967464320613
sI2
F-99.99999966886743
sI3
F-99.9999925354462
sI6
F-84.97560886083939
ssS'AA000BABB'
p1057
(dp1058
I3
F100.0
sI4
F99.9999985651093
sI5
F-84.1420274569841
ssS'B0AB0000A'
p1059
(dp1060
I8
F-61.80173604260855
sI2
F-99.99893717325774
sI5
F37.34002262230386
sI6
F100.0
sI7
F80.0
ssS'0B0B0ABA0'
p1061
(dp1062
I1
F-4.0
sI3
F-11.329485976042005
sI5
F-24.86934944268358
sI9
F-85.48974196166849
ssS'BAAA0BBB0'
p1063
(dp1064
I9
F-5.0
sI5
F-100.0
ssS'0AABB00AB'
p1065
(dp1066
I1
F100.0
sI6
F-88.6507592833592
sI7
F-99.99998405677
ssS'BB0B0AAA0'
p1067
(dp1068
I9
F100.0
sI3
F80.0
sI5
F41.792813405000004
ssS'AB0BAB000'
p1069
(dp1070
I8
F14.12063014070835
sI9
F100.0
sI3
F80.0
sI7
F80.0
ssS'BB0AAB00A'
p1071
(dp1072
I8
F-99.95101111313505
sI3
F72.59574637318536
sI7
F-99.90805894995344
ssS'0A0A0BBB0'
p1073
(dp1074
I1
F-99.47952790091362
sI3
F-97.33064444191011
sI5
F-93.89808497842814
sI9
F-4.0
ssS'BBAA0B00A'
p1075
(dp1076
I8
F-2.408056642931799
sI5
F55.27628091965415
sI7
F80.0
ssS'BA00AB0B0'
p1077
(dp1078
I9
F-4.0
sI3
F-79.99779385235976
sI4
F-79.43979551820152
sI7
F1.2920097057240358
ssS'AABB0A0B0'
p1079
(dp1080
I9
F-2.412387737043949
sI5
F-3.999548606646567
sI7
F-3.9991247535895598
ssS'0AA00B00B'
p1081
(dp1082
I8
F80.0
sI1
F100.0
sI4
F64.00082926076867
sI5
F80.0
sI7
F80.0
ssS'BA0BA00BA'
p1083
(dp1084
I3
F-99.99999999428543
sI6
F-99.40669119148481
sI7
F60.581486768119994
ssS'0B00A0BA0'
p1085
(dp1086
I1
F-1.4511287983320607
sI3
F-3.1759189656650255
sI4
F14.752092836519168
sI6
F0.6406797500386903
sI9
F-64.74435544682112
ssS'AABBBAAB0'
p1087
(dp1088
I9
F-5.0
ssS'0B0A00ABB'
p1089
(dp1090
I1
F100.0
sI3
F-46.094422932082495
sI5
F80.0
sI6
F-87.60010759446912
ssS'BABA00A0B'
p1091
(dp1092
I8
F-99.99999999999746
sI5
F-99.99999998534483
sI6
F63.810746919318014
ssS'AABB0BBAA'
p1093
(dp1094
I5
F100.0
ssS'000BBABAA'
p1095
(dp1096
I1
F-96.58973115454403
sI2
F-100.0
sI3
F100.0
ssS'0000BAAB0'
p1097
(dp1098
I1
F-99.99981295480877
sI2
F-3.1857627209489623
sI3
F-99.99992684916482
sI4
F-99.57856594264963
sI9
F-99.66604053131957
ssS'0A00BA00B'
p1099
(dp1100
I8
F-99.40127552430911
sI1
F13.60954864343341
sI3
F-99.9722205934616
sI4
F-98.73693733172495
sI7
F-99.99995707686526
ssS'ABB0AA00B'
p1101
(dp1102
I8
F-3.9999903721874657
sI4
F100.0
sI7
F-3.9999999999426565
ssS'00A0BAB0B'
p1103
(dp1104
I8
F-99.455560957216
sI1
F-98.97691939521792
sI2
F-100.0
sI4
F-99.99999999999989
ssS'0BAA0ABB0'
p1105
(dp1106
I1
F-99.99940950999999
sI5
F100.0
sI9
F99.99998405677
ssS'ABABBABA0'
p1107
(dp1108
I9
F100.0
ssS'B0BB0AABA'
p1109
(dp1110
I2
F-5.0
sI5
F-100.0
ssS'AB0BABA00'
p1111
(dp1112
I8
F80.0
sI9
F100.0
sI3
F100.0
ssS'B0AB000A0'
p1113
(dp1114
I9
F-99.86902468267982
sI2
F-59.18248000000001
sI5
F-83.82852421244871
sI6
F77.7302005526457
sI7
F80.0
ssS'A0BB0B0A0'
p1115
(dp1116
I9
F-99.69298822261932
sI2
F-62.17221216906118
sI5
F-99.90737947975491
sI7
F-98.97917661302418
ssS'BABA0B000'
p1117
(dp1118
I8
F-62.18693793603431
sI9
F-4.0
sI5
F-99.99858492302884
sI7
F-99.76672351126476
ssS'BA0ABABBA'
p1119
(dp1120
I3
F100.0
ssS'0A000B0B0'
p1121
(dp1122
I1
F-16.78527480000598
sI3
F-27.920752679448498
sI4
F-66.69401240625001
sI5
F-14.559728773784627
sI7
F10.912000003019514
sI9
F-3.199999976207024
ssS'AA00BA0BB'
p1123
(dp1124
I3
F100.0
sI4
F26.094362538531584
sI7
F80.0
ssS'A0A0B00BB'
p1125
(dp1126
I2
F100.0
sI4
F-96.19922193327096
sI6
F-99.99997137192136
sI7
F-99.99997990564938
ssS'A0000BB00'
p1127
(dp1128
I2
F-35.036205689368835
sI3
F72.51684884018258
sI4
F-39.49161200070363
sI5
F-76.40438611883091
sI8
F-26.21442134985137
sI9
F-9.820023010276586
ssS'ABAB0BA00'
p1129
(dp1130
I8
F-99.99999995113846
sI9
F26.027781213218233
sI5
F100.0
ssS'00BABA0AB'
p1131
(dp1132
I1
F-96.56773451023876
sI2
F-100.0
sI7
F-99.99999999988108
ssS'B0BB0A0AA'
p1133
(dp1134
I2
F-85.249555993
sI5
F-99.757
sI7
F100.0
ssS'AB0AA00BB'
p1135
(dp1136
I3
F-98.67319936913046
sI6
F100.0
sI7
F100.0
ssS'00BBABBAA'
p1137
(dp1138
I1
F100.0
sI2
F100.0
ssS'ABAB00BAB'
p1139
(dp1140
I5
F-5.0
sI6
F-5.0
ssS'A0BB00AB0'
p1141
(dp1142
I9
F-79.9993207946767
sI2
F-26.78487470596294
sI5
F-3.9949819364289207
sI6
F-4.0
ssS'ABAB0BA0B'
p1143
(dp1144
I8
F-100.0
sI5
F100.0
ssS'BB0BAA000'
p1145
(dp1146
I8
F-99.99999999999989
sI9
F-99.99076575462782
sI3
F-99.99999999999997
sI7
F-96.59551972603938
ssS'A00BBABA0'
p1147
(dp1148
I9
F-88.6599994576113
sI2
F-96.59799764964873
sI3
F80.0
ssS'B0000B0A0'
p1149
(dp1150
I2
F-79.99995922669474
sI3
F-63.2931555954914
sI4
F-79.39896845935412
sI5
F-1.6264170256266275
sI7
F-79.66091867730174
sI9
F-25.661271032975627
ssS'BAAA0BBAB'
p1151
(dp1152
I5
F100.0
ssS'000B00ABA'
p1153
(dp1154
I1
F-68.5839715531664
sI2
F14.412648038099587
sI3
F80.0
sI5
F80.0
sI6
F61.44075388729893
ssS'A0BB00ABA'
p1155
(dp1156
I2
F2.879947461290076
sI5
F100.0
sI6
F-3.519861288284256
ssS'BBA00AB00'
p1157
(dp1158
I8
F-80.00181108609951
sI9
F100.0
sI4
F80.0
sI5
F79.99749983888562
ssS'0B0BBA0A0'
p1159
(dp1160
I1
F-4.0
sI3
F-3.4807068402931773
sI9
F80.0
sI7
F-3.5182118491524097
ssS'B00BAAA0B'
p1161
(dp1162
I8
F80.0
sI2
F80.0
sI3
F100.0
ssS'BA00A0B00'
p1163
(dp1164
I8
F100.0
sI9
F-88.35374628437009
sI3
F-99.96523131198329
sI4
F80.0
sI6
F-96.59799995101652
ssS'00B000ABA'
p1165
(dp1166
I1
F80.0
sI2
F6.685685070665897
sI4
F-3.1436596140785076
sI5
F-3.195023250288019
sI6
F-3.1999999872430176
ssS'A00BB0000'
p1167
(dp1168
I2
F-61.179399999989315
sI3
F-88.65999999998932
sI6
F-3.1999799791135426
sI7
F-99.98793038235516
sI8
F-82.61217942601293
sI9
F-99.96531559765948
ssS'AABB0BBA0'
p1169
(dp1170
I9
F-100.0
sI5
F100.0
ssS'ABABBA00B'
p1171
(dp1172
I8
F-5.0
sI7
F-100.0
ssS'0B0A00B0A'
p1173
(dp1174
I8
F-74.1281856126214
sI1
F-66.25311548189325
sI3
F52.56646898924548
sI5
F79.99985828239525
sI6
F80.0
ssS'0B0AABBBA'
p1175
(dp1176
I1
F100.0
sI3
F-5.0
ssS'ABABB0BAA'
p1177
(dp1178
I6
F100.0
ssS'ABB00ABAB'
p1179
(dp1180
I4
F-100.0
sI5
F-5.0
ssS'000000ABB'
p1181
(dp1182
I1
F67.360000535848
sI2
F-3.199795064329879
sI3
F26.736187156982425
sI4
F64.00000000000003
sI5
F38.08752442328695
sI6
F-65.01671984839541
ssS'AB0000AB0'
p1183
(dp1184
I9
F-99.99977491711888
sI3
F-88.65172453118174
sI4
F100.0
sI5
F80.0
sI6
F-98.97840520490868
ssS'AB0BAABB0'
p1185
(dp1186
I9
F100.0
sI3
F-100.0
ssS'BB00B00AA'
p1187
(dp1188
I3
F80.0
sI4
F-99.99867681569569
sI6
F-99.99993227864368
sI7
F100.0
ssS'000B00B0A'
p1189
(dp1190
I1
F-79.63142265248129
sI2
F-99.83204742657415
sI3
F-88.19012220559142
sI5
F-99.69133977912911
sI6
F-99.96597987711881
sI8
F-99.99999255982192
ssS'B0ABAB00A'
p1191
(dp1192
I8
F-95.56913133203771
sI2
F-96.59549983888562
sI7
F100.0
ssS'0BAABAB0B'
p1193
(dp1194
I8
F-100.0
sI1
F-100.0
ssS'BAB0A00B0'
p1195
(dp1196
I9
F-4.0
sI4
F-3.840398572
sI6
F-3.998842639360122
sI7
F-4.0
ssS'AABBA0B0B'
p1197
(dp1198
I8
F100.0
sI6
F-100.0
ssS'BAB0A0B0A'
p1199
(dp1200
I8
F100.0
sI4
F80.0
sI6
F-88.64923117984267
ssS'A0ABBA0BB'
p1201
(dp1202
I2
F100.0
sI7
F-100.0
ssS'00BB00ABA'
p1203
(dp1204
I1
F-69.89484425108421
sI2
F-4.0
sI5
F-3.999649979489246
sI6
F-59.12272145545913
ssS'AAB0B00B0'
p1205
(dp1206
I9
F-99.99999979748695
sI4
F-58.706145985318955
sI6
F-99.4556799921896
sI7
F-3.987140439999853
ssS'B0BABBA0A'
p1207
(dp1208
I8
F100.0
sI2
F-5.0
ssS'ABBA0BBA0'
p1209
(dp1210
I9
F-100.0
sI5
F-100.0
ssS'AA0B000B0'
p1211
(dp1212
I9
F80.0
sI3
F100.0
sI5
F80.0
sI6
F2.762563724914406
sI7
F55.21327567402534
ssS'BA0AAB0BB'
p1213
(dp1214
I3
F-100.0
sI7
F-100.0
ssS'A0B0BB0A0'
p1215
(dp1216
I9
F-99.9989592321933
sI2
F-100.0
sI4
F-99.99916888374919
sI7
F-99.999776778663
ssS'0B0AA000B'
p1217
(dp1218
I8
F-3.024879048697799
sI1
F80.0
sI3
F80.0
sI6
F100.0
sI7
F80.0
ssS'AA00BABB0'
p1219
(dp1220
I9
F-98.97015803357226
sI3
F100.0
sI4
F-99.99999999990585
ssS'0BAA0BB0A'
p1221
(dp1222
I8
F-3.999999808681169
sI1
F77.87989925862962
sI5
F-3.9995173807080295
ssS'BB000AAAB'
p1223
(dp1224
I3
F-99.99749984870462
sI4
F-99.99999999990585
sI5
F-99.99751994199904
ssS'A0BB00A0B'
p1225
(dp1226
I8
F-30.980744173717518
sI2
F-93.89722878914837
sI5
F-99.99823280178089
sI6
F-4.0
ssS'00B0000AB'
p1227
(dp1228
I1
F-99.99608172276747
sI2
F-96.58950977205272
sI4
F-99.99999847506373
sI5
F-100.0
sI6
F-63.84995403929141
sI7
F-99.99999698770827
ssS'A0B00AABB'
p1229
(dp1230
I2
F19.567985660972127
sI4
F100.0
sI5
F60.295631074279996
ssS'00B0AB0BA'
p1231
(dp1232
I1
F100.0
sI2
F-3.9998863870098553
sI4
F20.519600000189506
sI7
F-3.3804887898297546
ssS'000BB0A00'
p1233
(dp1234
I1
F-99.61276215793215
sI2
F-98.16966249615928
sI3
F-99.99908145906302
sI6
F45.110079999999996
sI8
F-99.99811672806587
sI9
F-99.68532991669932
ssS'ABA00BAB0'
p1235
(dp1236
I9
F-88.65999944163774
sI4
F100.0
sI5
F100.0
ssS'B000A0000'
p1237
(dp1238
I2
F-1.5157920605663129
sI3
F1.1522705139814464
sI4
F2.0347804969849523
sI6
F-2.013982105110485
sI7
F-0.9601951608719457
sI8
F2.641289612730521
sI9
F1.7990384583222543
ssS'A0B0BB0AA'
p1239
(dp1240
I2
F-99.99994685589999
sI4
F-99.8695446646917
sI7
F100.0
ssS'B0B0AABA0'
p1241
(dp1242
I9
F-99.97813
sI2
F100.0
sI4
F99.99999956953279
ssS'00B0AB0A0'
p1243
(dp1244
I1
F-62.16162751500261
sI2
F100.0
sI4
F-95.52717824179896
sI9
F80.0
sI7
F-99.99668634548331
ssS'ABBB0A000'
p1245
(dp1246
I8
F-4.0
sI9
F-79.99991501676878
sI5
F56.574515935655896
sI7
F-4.0
ssS'00ABA0BAB'
p1247
(dp1248
I1
F1.3348655290557474
sI2
F100.0
sI6
F-97.59229090221082
ssS'0A0BBA00B'
p1249
(dp1250
I8
F-99.62188956869225
sI1
F-3.523719156284268
sI3
F-99.98843532240653
sI7
F-26.158124618880343
ssS'0BBB0AA00'
p1251
(dp1252
I8
F-99.99740087317954
sI1
F-4.0
sI5
F-32.79959968729085
sI9
F-99.99693803289004
ssS'B0000A00B'
p1253
(dp1254
I2
F-99.99864141323587
sI3
F-85.42534515803446
sI4
F-99.66601424731708
sI5
F3.9186260469399308
sI7
F-99.8349682154184
sI8
F-99.99999995766193
ssS'ABAB00B00'
p1255
(dp1256
I8
F-4.0
sI9
F80.0
sI5
F-3.8571157462697094
sI6
F20.99703743633946
ssS'BAABB0A00'
p1257
(dp1258
I8
F-100.0
sI9
F-62.19993303843397
sI6
F-99.99997788764202
ssS'0A00AB00B'
p1259
(dp1260
I8
F100.0
sI1
F-98.63407720561636
sI3
F80.0
sI4
F-62.173920480127805
sI7
F-99.69379200768698
ssS'AAB0BA0BB'
p1261
(dp1262
I4
F-100.0
sI7
F-5.0
ssS'0A0BBA000'
p1263
(dp1264
I8
F-49.13100043636431
sI1
F-3.057985588197732
sI3
F80.0
sI9
F45.1622250644285
sI7
F45.75470874116037
ssS'0BABABB0A'
p1265
(dp1266
I8
F-100.0
sI1
F100.0
ssS'A0ABAB0B0'
p1267
(dp1268
I9
F99.99999998837738
sI2
F100.0
sI7
F99.99999987085984
ssS'BB00A0BA0'
p1269
(dp1270
I9
F-99.99999999999882
sI3
F-93.95199999999998
sI4
F-92.6251842871648
sI6
F-99.99999999999999
ssS'0BAB0AB00'
p1271
(dp1272
I8
F28.141424400616444
sI1
F57.067892148976526
sI5
F27.34548419545976
sI9
F100.0
ssS'BA00A00BB'
p1273
(dp1274
I3
F-98.97939395737794
sI4
F-99.99997512451009
sI6
F-98.18559970290994
sI7
F-3.999548629444
ssS'ABABB0000'
p1275
(dp1276
I8
F-99.39199455765501
sI9
F-99.99999395745998
sI6
F-99.99999814281651
sI7
F-99.9999751994068
ssS'00BBAB0A0'
p1277
(dp1278
I1
F-62.199999930300194
sI2
F100.0
sI9
F80.0
sI7
F-98.97036830825844
ssS'ABBA0A0BB'
p1279
(dp1280
I5
F100.0
sI7
F100.0
ssS'A0A0BB0B0'
p1281
(dp1282
I9
F29.735742290525522
sI2
F100.0
sI4
F-98.94830157979956
sI7
F-99.6637167802795
ssS'0BBBAAB0A'
p1283
(dp1284
I8
F-100.0
sI1
F100.0
ssS'AB0ABBB0A'
p1285
(dp1286
I8
F-100.0
sI3
F-100.0
ssS'B00BA000A'
p1287
(dp1288
I8
F-96.59799379606237
sI2
F-62.19999999763735
sI3
F-88.65918283176575
sI6
F-99.99999997555375
sI7
F80.0
ssS'0AB000000'
p1289
(dp1290
I1
F-63.98684796354443
sI4
F-23.388604160509338
sI5
F19.335042783484294
sI6
F0.4896630907443278
sI7
F3.1912241058862074
sI8
F-1.010744076380135
sI9
F-2.1212886148528285
ssS'0A0B00BBA'
p1291
(dp1292
I1
F80.0
sI3
F-99.87975017694235
sI5
F-99.88051482473442
sI6
F26.01025339591085
ssS'0B0A0000B'
p1293
(dp1294
I1
F-62.962755482031305
sI3
F-36.735256610160505
sI5
F27.11567091161183
sI6
F-79.02788918539136
sI7
F-9.313926323640729
sI8
F-25.714857875192322
ssS'ABBAB000A'
p1295
(dp1296
I8
F-58.49154365068
sI6
F-99.99999987085984
sI7
F100.0
ssS'AABAABBB0'
p1297
(dp1298
I9
F100.0
ssS'BAAB0BA0B'
p1299
(dp1300
I8
F-100.0
sI5
F100.0
ssS'BBAAAB0BA'
p1301
(dp1302
I7
F100.0
ssS'00BA0BBA0'
p1303
(dp1304
I1
F-99.62079845433921
sI2
F-99.66626193973599
sI5
F-88.1337908719589
sI9
F-99.46002705090231
ssS'A0ABB0A0B'
p1305
(dp1306
I8
F-11.927975007297068
sI2
F100.0
sI6
F-3.996142131981898
ssS'AABBA0B00'
p1307
(dp1308
I8
F100.0
sI9
F100.0
sI6
F80.0
ssS'0BAABAB00'
p1309
(dp1310
I8
F-3.855607520012313
sI1
F-71.41814605490701
sI9
F100.0
ssS'0B0BA00BA'
p1311
(dp1312
I1
F100.0
sI3
F80.0
sI6
F80.0
sI7
F80.0
ssS'A0ABBA0B0'
p1313
(dp1314
I9
F100.0
sI2
F99.99999999651321
sI7
F-62.078016663547174
ssS'0BAAB000B'
p1315
(dp1316
I8
F-99.82160733351706
sI1
F-99.99993290570772
sI6
F-99.9999924995462
sI7
F-99.99997805031295
ssS'A000BA0B0'
p1317
(dp1318
I9
F-62.196928527163465
sI2
F70.30393208169886
sI3
F-96.59793303839841
sI4
F-99.9890499824048
sI7
F-99.99986065793921
ssS'BABA0BAB0'
p1319
(dp1320
I9
F-5.0
sI5
F-100.0
ssS'B0BA00B0A'
p1321
(dp1322
I8
F-99.99999999837283
sI2
F-79.8399999992141
sI5
F-99.99999998529209
sI6
F-99.99999999560666
ssS'AA000B0B0'
p1323
(dp1324
I9
F80.0
sI3
F100.0
sI4
F80.0
sI5
F80.0
sI7
F80.0
ssS'0BBAA0BAB'
p1325
(dp1326
I1
F-100.0
sI6
F100.0
ssS'00BB0ABAA'
p1327
(dp1328
I1
F-99.9999999511818
sI2
F-99.99999996125796
sI5
F-96.597999998682
ssS'0BB0B00AA'
p1329
(dp1330
I1
F-62.198943145054955
sI4
F-98.97015988912149
sI6
F-88.65976890974838
sI7
F100.0
ssS'0000B0000'
p1331
(dp1332
I1
F24.641651288612746
sI2
F-63.75161996365365
sI3
F-2.5417347692620087
sI4
F-47.039079945275866
sI6
F-56.69673918276405
sI7
F-2.5481541520658624
sI8
F-13.886534685659683
sI9
F-2.4170685505080565
ssS'BAA0ABB00'
p1333
(dp1334
I8
F100.0
sI9
F-100.0
sI4
F-2.398351801254325
ssS'A00B000B0'
p1335
(dp1336
I2
F-61.42160083110818
sI3
F65.10717160798094
sI5
F15.970592996114021
sI6
F59.375333909200016
sI7
F-73.56161076703863
sI9
F-69.58401361990038
ssS'ABBAB00AB'
p1337
(dp1338
I6
F-100.0
sI7
F100.0
ssS'00A0A0B0B'
p1339
(dp1340
I8
F-3.1611723394140054
sI1
F-98.9793999852917
sI2
F-88.56792274596182
sI4
F-98.97939818893524
sI6
F-99.69373551799846
ssS'0BBBAA0BA'
p1341
(dp1342
I1
F100.0
sI7
F-100.0
ssS'00BAA0B0B'
p1343
(dp1344
I8
F-95.47380497431828
sI1
F-99.99172710731644
sI2
F-99.99172704995303
sI6
F100.0
ssS'B0BB000AA'
p1345
(dp1346
I2
F-83.81083472778738
sI5
F-58.49078576523924
sI6
F-99.86901120866553
sI7
F100.0
ssS'AA0B0BBBA'
p1347
(dp1348
I3
F100.0
sI5
F100.0
ssS'ABBB000A0'
p1349
(dp1350
I9
F80.0
sI5
F78.4120515961448
sI6
F-4.0
sI7
F-3.3378342669102645
ssS'00B0AABB0'
p1351
(dp1352
I1
F-99.69133977928202
sI2
F-99.9081459982217
sI4
F100.0
sI9
F80.0
ssS'ABA0ABB0B'
p1353
(dp1354
I8
F-5.0
sI4
F-100.0
ssS'A0BB00B0A'
p1355
(dp1356
I8
F-99.66303293786353
sI2
F-98.84892423025317
sI5
F100.0
sI6
F41.07605303046161
ssS'A0ABABBB0'
p1357
(dp1358
I9
F100.0
sI2
F100.0
ssS'0B00AB00A'
p1359
(dp1360
I8
F80.0
sI1
F100.0
sI3
F80.0
sI4
F62.759944775248854
sI7
F80.0
ssS'BB00000A0'
p1361
(dp1362
I3
F45.14564243026733
sI4
F-99.59694914194436
sI5
F-93.90002846461695
sI6
F-99.97436223948863
sI7
F-64.45398349945123
sI9
F-99.9999997777379
ssS'000A0B0BA'
p1363
(dp1364
I1
F80.0
sI2
F11.960882585954828
sI3
F12.655280717104816
sI5
F78.80569306300944
sI7
F21.78526804526753
ssS'B00ABABA0'
p1365
(dp1366
I9
F-99.9999999999525
sI2
F-100.0
sI3
F-62.099879139999985
ssS'BA00BA000'
p1367
(dp1368
I8
F-99.99999124362344
sI9
F-3.1803502036526448
sI3
F-98.97106561661207
sI4
F-99.9999638765301
sI7
F-96.70452327308975
ssS'B0BABA000'
p1369
(dp1370
I8
F-100.0
sI9
F-99.99989160000513
sI2
F-99.99972374304856
sI7
F-99.99964108006316
ssS'ABB0AA0B0'
p1371
(dp1372
I9
F99.9999985651093
sI4
F100.0
sI7
F79.99952760798418
ssS'B0AB00000'
p1373
(dp1374
I2
F-93.89458978009452
sI5
F-96.59791288610923
sI6
F-99.96455982099009
sI7
F-66.82503700047127
sI8
F-99.88587023354252
sI9
F-99.9999999987138
ssS'0BA0BB0A0'
p1375
(dp1376
I1
F-99.99558779363394
sI4
F-4.0
sI9
F-79.83999817717961
sI7
F-99.99972220593712
ssS'0B000AA0B'
p1377
(dp1378
I8
F9.517116843430657
sI1
F0.3115205243972614
sI3
F-74.97838528995572
sI4
F79.99999999987196
sI5
F80.0
ssS'0A0B0AB00'
p1379
(dp1380
I8
F-99.84729406726733
sI1
F65.03545629006439
sI3
F-96.21892
sI5
F64.13784768768116
sI9
F-61.971567561752195
ssS'0BB00B0AA'
p1381
(dp1382
I1
F80.0
sI4
F-43.506203309832216
sI5
F27.148500871629793
sI7
F100.0
ssS'0B00ABABA'
p1383
(dp1384
I1
F100.0
sI3
F100.0
sI4
F80.0
ssS'A0BB0A0AB'
p1385
(dp1386
I2
F18.932000000184658
sI5
F13.640000002050229
sI7
F-4.0
ssS'BABAA0BB0'
p1387
(dp1388
I9
F-5.0
sI6
F100.0
ssS'000BAABAB'
p1389
(dp1390
I1
F1.2920008507349898
sI2
F100.0
sI3
F-99.99999968447979
ssS'AB0B0ABA0'
p1391
(dp1392
I9
F80.0
sI3
F-2.412252346039637
sI5
F61.679707237627056
ssS'AB00B0BAA'
p1393
(dp1394
I3
F61.679600000000036
sI4
F-99.45435730239429
sI6
F-98.97669619427269
ssS'BA00000AB'
p1395
(dp1396
I3
F-49.403046938770004
sI4
F-83.80346896543477
sI5
F100.0
sI6
F79.99979799328776
sI7
F-85.127547932245
ssS'00A00A0BB'
p1397
(dp1398
I1
F-99.99999994071082
sI2
F-99.92738246981034
sI4
F-99.97244378302301
sI5
F-99.99999397304842
sI7
F-79.99113535988492
ssS'BABAA0BBA'
p1399
(dp1400
I6
F100.0
ssS'AA0BB0BBA'
p1401
(dp1402
I3
F100.0
sI6
F-100.0
ssS'00B0A0AB0'
p1403
(dp1404
I1
F80.0
sI2
F11.437895927714308
sI4
F80.0
sI6
F4.168324985486943
sI9
F-3.0569865380857983
ssS'AB0000B00'
p1405
(dp1406
I3
F-3.1999957970926753
sI4
F-79.97685580966615
sI5
F-3.1950015776538505
sI6
F10.913482090016984
sI8
F-3.1999946650633246
sI9
F-74.70374005774569
ssS'BBA0BB0AA'
p1407
(dp1408
I4
F-5.0
sI7
F100.0
ssS'BB0AA0BAB'
p1409
(dp1410
I3
F-5.0
sI6
F100.0
ssS'B00A00A0B'
p1411
(dp1412
I8
F-64.41997560179487
sI2
F-99.9999997866901
sI3
F26.002480058035573
sI5
F80.0
sI6
F-95.26288616338994
ssS'A0B00BA00'
p1413
(dp1414
I8
F26.09260608435426
sI9
F80.0
sI2
F-95.77244342839941
sI4
F100.0
sI5
F26.027584896495014
ssS'B0BABA00A'
p1415
(dp1416
I8
F-100.0
sI2
F-99.99999999999994
sI7
F-99.93499183402223
ssS'0BB00AB0A'
p1417
(dp1418
I8
F-99.99908125157178
sI1
F-99.99925581497573
sI4
F-99.99916269448099
sI5
F-99.99751989313447
ssS'BAB00ABA0'
p1419
(dp1420
I9
F-99.999822853
sI4
F29.450405599999996
sI5
F100.0
ssS'B0AA00B00'
p1421
(dp1422
I8
F0.750761773224049
sI9
F-3.1945424245537675
sI2
F-25.295180876749
sI5
F0.6060747419092269
sI6
F80.0
ssS'BAA00B0BA'
p1423
(dp1424
I4
F-4.0
sI5
F1.2920000302294916
sI7
F-3.999999739866213
ssS'ABB00AA0B'
p1425
(dp1426
I8
F14.264202848000004
sI4
F100.0
sI5
F1.335001007832938
ssS'BAB0A0BBA'
p1427
(dp1428
I4
F-5.0
sI6
F-100.0
ssS'AA0B0000B'
p1429
(dp1430
I8
F80.0
sI3
F100.0
sI5
F80.0
sI6
F2.9823204367950655
sI7
F55.040491285035145
ssS'0BB0000A0'
p1431
(dp1432
I1
F1.0410932498042076
sI4
F-81.55044968983375
sI5
F-99.25655689313977
sI6
F-77.741822764502
sI7
F-56.53627859585067
sI9
F-95.61445070000562
ssS'BB0AABAB0'
p1433
(dp1434
I9
F-100.0
sI3
F100.0
ssS'B0ABAA0B0'
p1435
(dp1436
I9
F99.97813
sI2
F-61.79866691595315
sI7
F100.0
ssS'AABB0B0BA'
p1437
(dp1438
I5
F100.0
sI7
F-100.0
ssS'BAAAB0BB0'
p1439
(dp1440
I9
F-5.0
sI6
F-100.0
ssS'AABA0B0B0'
p1441
(dp1442
I9
F79.9999574827674
sI5
F-99.68480729457008
sI7
F100.0
ssS'000B00AAB'
p1443
(dp1444
I1
F-3.2003747875677324
sI2
F-21.282403265118912
sI3
F-8.764542208524595
sI5
F80.0
sI6
F1.1136150529231568
ssS'AB0AABB00'
p1445
(dp1446
I8
F1.2920002537298068
sI9
F100.0
sI3
F-2.412387812994853
ssS'ABBA0B000'
p1447
(dp1448
I8
F-97.90599966763594
sI9
F80.0
sI5
F-47.02066696327968
sI7
F100.0
ssS'0BBAB000A'
p1449
(dp1450
I8
F-99.99729619295138
sI1
F-99.9999328739932
sI6
F-100.0
sI7
F-99.99173132764396
ssS'BA000B0AB'
p1451
(dp1452
I3
F78.97684690503085
sI4
F67.20283714322396
sI5
F100.0
sI7
F63.82778783149046
ssS'BBA00AAB0'
p1453
(dp1454
I9
F99.9271
sI4
F-96.29107119963616
sI5
F100.0
ssS'B00A0A00B'
p1455
(dp1456
I8
F-83.82916352032572
sI2
F-87.29680993201724
sI3
F42.19995741240152
sI5
F100.0
sI7
F-46.000012761094084
ssS'AA0ABB0B0'
p1457
(dp1458
I9
F79.99999999070049
sI3
F100.0
sI7
F99.99999998837738
ssS'B0A0B0AB0'
p1459
(dp1460
I9
F-84.23648145836859
sI2
F-99.99999999831572
sI4
F-99.99999999788433
sI6
F-99.99999995113546
ssS'A000B000B'
p1461
(dp1462
I2
F-8.326697617450762
sI3
F60.42312330454859
sI4
F-78.5207820072556
sI6
F-71.94445548369457
sI7
F-3.199894043360395
sI8
F-72.9581676945041
ssS'000BA0BAB'
p1463
(dp1464
I1
F-3.8571159999999987
sI2
F100.0
sI3
F-60.385401387054856
sI6
F-26.73690654935558
ssS'BBAAB0B0A'
p1465
(dp1466
I8
F-5.0
sI6
F100.0
ssS'0BAA00B00'
p1467
(dp1468
I8
F6.326020930996382
sI1
F-4.981344582368572
sI5
F41.43917202390188
sI6
F80.0
sI9
F24.961225718117166
ssS'0A0BBAAB0'
p1469
(dp1470
I1
F54.8001069748218
sI3
F80.0
sI9
F-1.923260439981723
ssS'B00A00B00'
p1471
(dp1472
I2
F-40.59463635493019
sI3
F-46.46313250222894
sI5
F1.9762287719019953
sI6
F-45.99499869966524
sI8
F-9.664913047541042
sI9
F-3.2543451063550277
ssS'BBA0B000A'
p1473
(dp1474
I8
F80.0
sI4
F-93.78870354327313
sI6
F100.0
sI7
F-88.65999999372379
ssS'AAB00BB0A'
p1475
(dp1476
I8
F-98.9676844244893
sI4
F-58.763885478462626
sI5
F100.0
ssS'AAB00BAB0'
p1477
(dp1478
I9
F79.99999989668784
sI4
F100.0
sI5
F26.309411930389686
ssS'ABB00AB0A'
p1479
(dp1480
I8
F30.54532970581448
sI4
F-46.008511979464146
sI5
F100.0
ssS'00AB0A0BB'
p1481
(dp1482
I1
F-98.5705383206802
sI2
F-99.9934259375782
sI5
F-99.89737641209149
sI7
F-43.351505556577266
ssS'ABA0BBAAB'
p1483
(dp1484
I4
F100.0
ssS'B00A00ABB'
p1485
(dp1486
I2
F-94.5399970129184
sI3
F-99.97146872236218
sI5
F80.0
sI6
F26.000229987517415
ssS'A0B0BAAB0'
p1487
(dp1488
I9
F-99.98526664601903
sI2
F-3.956787591857961
sI4
F100.0
ssS'A00B00000'
p1489
(dp1490
I2
F64.00002827898888
sI3
F76.20800178564176
sI5
F64.0000198405961
sI6
F22.617667908037735
sI7
F48.64819088494135
sI8
F-2.465472551883095
sI9
F37.57664404119387
ssS'000ABAABB'
p1491
(dp1492
I1
F100.0
sI2
F-98.876208592
sI3
F-99.9271
ssS'BAB0A00BA'
p1493
(dp1494
I4
F54.801505412235784
sI6
F-3.999999993110534
sI7
F-4.0
ssS'BBAAABB00'
p1495
(dp1496
I8
F-5.0
sI9
F-5.0
ssS'B00BBA00A'
p1497
(dp1498
I8
F-99.99999817112021
sI2
F-99.99852116003923
sI3
F100.0
sI7
F80.0
ssS'0A0B00000'
p1499
(dp1500
I1
F75.20000253025437
sI3
F-15.62956912453344
sI5
F64.00000016200958
sI6
F18.81153679231557
sI7
F50.23444510694223
sI8
F41.45399867809881
sI9
F49.37077716066164
ssS'000ABA0B0'
p1501
(dp1502
I1
F-99.99999945031558
sI2
F-71.59314595269277
sI3
F-99.99999216385564
sI9
F-88.61855424079052
sI7
F-83.83319795424322
ssS'AABBA0BB0'
p1503
(dp1504
I9
F100.0
sI6
F-100.0
ssS'AB00ABBAB'
p1505
(dp1506
I3
F-5.0
sI4
F-100.0
ssS'A0B000ABB'
p1507
(dp1508
I2
F-99.99491883101487
sI4
F100.0
sI5
F-98.86980929567699
sI6
F21.14041703593223
ssS'0B00AABB0'
p1509
(dp1510
I1
F-99.90792279289714
sI3
F-99.9724436211631
sI4
F100.0
sI9
F80.0
ssS'000A00BB0'
p1511
(dp1512
I1
F-99.7923995094878
sI2
F-95.76929441671328
sI3
F-99.99999999945986
sI5
F-99.69341972202227
sI6
F-99.99999945321794
sI9
F8.903575912866607
ssS'0A0B000BA'
p1513
(dp1514
I1
F80.0
sI3
F79.99998644187721
sI5
F21.250854689818276
sI6
F11.913881646514458
sI7
F44.93816865800615
ssS'A0BABB00A'
p1515
(dp1516
I8
F26.000243890762334
sI2
F-62.19977623773585
sI7
F100.0
ssS'BB000AA0B'
p1517
(dp1518
I8
F-98.70589660116588
sI3
F-96.46678235036205
sI4
F-98.5788639819746
sI5
F-95.47373637736209
ssS'0AAAB0BB0'
p1519
(dp1520
I1
F100.0
sI6
F-99.99977674579692
sI9
F80.0
ssS'A0B0B0000'
p1521
(dp1522
I2
F-80.78029236532905
sI4
F-98.97939801467662
sI6
F-79.67198912296094
sI7
F-1.4434987678428053
sI8
F-99.99998513814296
sI9
F-99.95561149709714
ssS'0B0A0ABBA'
p1523
(dp1524
I1
F-99.86900933565893
sI3
F99.99999998837738
sI5
F100.0
ssS'000AB0B0A'
p1525
(dp1526
I8
F-76.95295700835322
sI1
F-72.7430719219901
sI2
F-99.72101769717187
sI3
F15.979348580685162
sI6
F-62.17244378084352
ssS'ABABAB000'
p1527
(dp1528
I8
F80.0
sI9
F100.0
sI7
F100.0
ssS'BAB0A0B00'
p1529
(dp1530
I8
F100.0
sI9
F-99.95061438898762
sI4
F80.0
sI6
F-61.89133977927263
ssS'0B00AABBA'
p1531
(dp1532
I1
F100.0
sI3
F99.9980317
sI4
F99.757
ssS'00B0B0A0A'
p1533
(dp1534
I8
F100.0
sI1
F80.0
sI2
F1.0718211971185667
sI4
F80.0
sI6
F-3.1861163226903235
ssS'BB0BAAAB0'
p1535
(dp1536
I9
F-100.0
sI3
F100.0
ssS'000A00BBA'
p1537
(dp1538
I1
F34.554017048313895
sI2
F63.99999977319821
sI3
F67.47866955649943
sI5
F79.9999961736248
sI6
F80.0
ssS'BAA0A00BB'
p1539
(dp1540
I4
F-87.61177683839838
sI6
F-98.9711313320374
sI7
F100.0
ssS'0A0B00ABB'
p1541
(dp1542
I1
F-3.332847421090979
sI3
F80.0
sI5
F-3.3211394984227463
sI6
F-4.0
ssS'B0BAAB0A0'
p1543
(dp1544
I9
F-98.97662905530153
sI2
F100.0
sI7
F-99.99999999651321
ssS'00A0B0ABB'
p1545
(dp1546
I1
F-99.90792279477971
sI2
F-99.99999819202704
sI4
F-99.99968974474324
sI6
F-99.9999999397346
ssS'0AA0ABBB0'
p1547
(dp1548
I1
F100.0
sI4
F-79.8253001435017
sI9
F-3.999999746880258
ssS'BABA0ABAB'
p1549
(dp1550
I5
F99.993439
ssS'B0AA0A0BB'
p1551
(dp1552
I2
F-99.19
sI5
F100.0
sI7
F-99.757
ssS'000BA00B0'
p1553
(dp1554
I1
F55.04201052781712
sI2
F-73.13922761440134
sI3
F-55.44150202158947
sI6
F-3.1959464674288607
sI7
F-3.1959821395890007
sI9
F-3.1973084504980886
ssS'A0B00A0BB'
p1555
(dp1556
I2
F-93.73971063460115
sI4
F-98.97939144427342
sI5
F-79.83924375049742
sI7
F-2.412390371650958
ssS'AB000B00A'
p1557
(dp1558
I8
F80.0
sI3
F18.243678608465622
sI4
F80.0
sI5
F100.0
sI7
F80.0
ssS'B0B0000A0'
p1559
(dp1560
I2
F-3.687817532293252
sI4
F-95.20996179593183
sI5
F-99.96388677321295
sI6
F-99.99189763199567
sI7
F-99.97243871254102
sI9
F-96.59799944295294
ssS'A0B0A0B0B'
p1561
(dp1562
I8
F-95.27103399426868
sI2
F-99.9716997826
sI4
F-99.99999999999679
sI6
F-99.99999999996442
ssS'A0B000AB0'
p1563
(dp1564
I9
F80.0
sI2
F-2.969083414984997
sI4
F100.0
sI5
F80.0
sI6
F44.5847086511506
ssS'ABBA0B0BA'
p1565
(dp1566
I5
F100.0
sI7
F100.0
ssS'BBAA0B000'
p1567
(dp1568
I8
F-4.0
sI9
F-4.0
sI5
F13.782886812386238
sI7
F-69.91933308768614
ssS'B0AAAB0B0'
p1569
(dp1570
I9
F54.94288681306119
sI2
F57.00676425373041
sI7
F100.0
ssS'B00BABABA'
p1571
(dp1572
I2
F-5.0
sI3
F100.0
ssS'0A0B00B0A'
p1573
(dp1574
I8
F-84.5364981545429
sI1
F80.0
sI3
F-85.18510024106163
sI5
F-83.83761529192
sI6
F-92.47181275976473
ssS'0ABBABAB0'
p1575
(dp1576
I1
F-100.0
sI9
F-5.0
ssS'0B00A0000'
p1577
(dp1578
I1
F64.00000000130174
sI3
F64.00000001576552
sI4
F64.00073483200003
sI6
F75.20000055015623
sI7
F64.00022067298379
sI8
F2.1896019868714873
sI9
F64.00000000004601
ssS'BB00A0B0A'
p1579
(dp1580
I8
F-99.99999999452787
sI3
F-96.59358495540542
sI4
F-99.99999999999997
sI6
F-99.9999999853555
ssS'0AAB0BB0A'
p1581
(dp1582
I8
F-99.999995217031
sI1
F100.0
sI5
F30.44446999999998
ssS'AA0BB0B00'
p1583
(dp1584
I8
F-99.89658607898909
sI9
F-99.98819879030597
sI3
F100.0
sI6
F-83.82777941093164
ssS'00ABAB00B'
p1585
(dp1586
I8
F80.0
sI1
F80.0
sI2
F80.0
sI7
F100.0
ssS'0B0ABBAAB'
p1587
(dp1588
I1
F100.0
sI3
F-100.0
ssS'B00AA00B0'
p1589
(dp1590
I9
F72.55774866200252
sI2
F17.184353812320207
sI3
F80.0
sI6
F100.0
sI7
F80.0
ssS'ABA000BB0'
p1591
(dp1592
I9
F-99.99990685372637
sI4
F-99.99991507402628
sI5
F-99.99993303404057
sI6
F26.02755624921039
ssS'A0BAA0BB0'
p1593
(dp1594
I9
F100.0
sI2
F-62.199776237711234
sI6
F100.0
ssS'A0BBA0000'
p1595
(dp1596
I8
F80.0
sI9
F100.0
sI2
F80.0
sI6
F59.296400169596495
sI7
F-3.194988395669006
ssS'BBAAAB00B'
p1597
(dp1598
I8
F-5.0
sI7
F100.0
ssS'B00B0BA0A'
p1599
(dp1600
I8
F100.0
sI2
F-62.19723668822995
sI3
F-99.99141662706934
sI5
F80.0
ssS'ABB00A00B'
p1601
(dp1602
I8
F-4.0
sI4
F80.0
sI5
F-3.9956472960312928
sI7
F-3.8142064122556922
ssS'AB0B00000'
p1603
(dp1604
I3
F-69.58717197728613
sI5
F-3.183375729871769
sI6
F-3.1999983697516066
sI7
F-22.272458326193416
sI8
F-3.199999477992882
sI9
F-69.60008182430956
ssS'A000B0000'
p1605
(dp1606
I2
F-1.003894439884136
sI3
F3.557555068615434
sI4
F4.256445121031625
sI6
F5.435235194098249
sI7
F-2.400626016081504
sI8
F-2.529444659547023
sI9
F4.129871299297605
ssS'0B000AB0A'
p1607
(dp1608
I8
F-36.2756102412012
sI1
F80.0
sI3
F100.0
sI4
F80.0
sI5
F80.0
ssS'B00A00B0A'
p1609
(dp1610
I8
F-2.40968000015586
sI2
F-2.4986544751529056
sI3
F-3.053049013503294
sI5
F-1.1823645275649528
sI6
F80.0
ssS'A0BB0BA0A'
p1611
(dp1612
I8
F100.0
sI2
F-99.97242190313692
sI5
F100.0
ssS'0BB00ABA0'
p1613
(dp1614
I1
F-99.99824466433152
sI4
F-99.99722977517838
sI5
F26.001460108049926
sI9
F-99.99663710206988
ssS'B0B0A0AB0'
p1615
(dp1616
I9
F-93.94759100018956
sI2
F-4.0
sI4
F-62.18731272984891
sI6
F-99.98087427882155
ssS'BABAA000B'
p1617
(dp1618
I8
F99.9999985651093
sI6
F100.0
sI7
F75.23244448999999
ssS'0A0B0B0A0'
p1619
(dp1620
I1
F76.56049416296254
sI3
F79.97242790907633
sI9
F68.60168
sI5
F100.0
sI7
F79.79335279349134
ssS'B000BAB0A'
p1621
(dp1622
I8
F-99.90807230235846
sI2
F-95.57717498107068
sI3
F100.0
sI4
F27.430437723167685
ssS'0AB0B00BA'
p1623
(dp1624
I1
F-99.62199999998563
sI4
F-99.93499146030919
sI6
F-99.99558029414375
sI7
F-4.0
ssS'BBAABB00A'
p1625
(dp1626
I8
F-5.0
sI7
F-100.0
ssS'AB0000BA0'
p1627
(dp1628
I9
F-3.1699872644668714
sI3
F-3.1990741078205507
sI4
F-3.199999921028207
sI5
F-3.0506689425878832
sI6
F-3.085320181736975
ssS'ABBBBA0A0'
p1629
(dp1630
I9
F-100.0
sI7
F-5.0
ssS'000BABBA0'
p1631
(dp1632
I1
F80.0
sI2
F100.0
sI3
F-29.91120496493975
sI9
F26.000000558797296
ssS'BAAABBB00'
p1633
(dp1634
I8
F-100.0
sI9
F-5.0
ssS'B0AB0BA0A'
p1635
(dp1636
I8
F100.0
sI2
F-99.97237683839838
sI5
F100.0
ssS'A00A0BBAB'
p1637
(dp1638
I2
F-96.58648251912204
sI3
F13.652963800439196
sI5
F-73.62376714982287
ssS'0000BB0AA'
p1639
(dp1640
I1
F-85.2579719896275
sI2
F-99.97243755801804
sI3
F-99.99997913681105
sI4
F55.5128903387852
sI7
F100.0
ssS'ABA0ABBB0'
p1641
(dp1642
I9
F100.0
sI4
F-100.0
ssS'B00A00BA0'
p1643
(dp1644
I9
F-2.44072873498288
sI2
F-77.62688629025055
sI3
F13.663630602550022
sI5
F80.0
sI6
F15.889464045425743
ssS'A0ABABBAB'
p1645
(dp1646
I2
F100.0
ssS'AA0BB0A0B'
p1647
(dp1648
I8
F-99.9853023954596
sI3
F100.0
sI6
F54.80011722487709
ssS'0AB00A0B0'
p1649
(dp1650
I1
F-79.9552158100246
sI9
F-3.196830375651158
sI4
F6.679585664759692
sI5
F78.22813715620211
sI7
F-3.199274958082029
ssS'ABB0AABB0'
p1651
(dp1652
I9
F100.0
sI4
F100.0
ssS'BB00A0AB0'
p1653
(dp1654
I9
F-99.8995604382711
sI3
F100.0
sI4
F-88.64900725884553
sI6
F-49.71998723184154
ssS'00BA0A00B'
p1655
(dp1656
I8
F79.06875499338267
sI1
F80.0
sI2
F47.8700107119044
sI5
F100.0
sI7
F79.99999999916174
ssS'ABABB0A0B'
p1657
(dp1658
I8
F-100.0
sI6
F-100.0
ssS'B0BA00000'
p1659
(dp1660
I2
F-79.59452620981635
sI5
F-88.64729172084601
sI6
F-98.64738387494151
sI7
F-99.71338918457903
sI8
F-94.33718978448366
sI9
F-96.14990621911217
ssS'BBAA00000'
p1661
(dp1662
I8
F63.99992755352855
sI9
F64.094140310536
sI5
F80.0
sI6
F79.99999998106884
sI7
F-78.7514640401848
ssS'ABBBA00AB'
p1663
(dp1664
I6
F-5.0
sI7
F-100.0
ssS'BBA00BABA'
p1665
(dp1666
I4
F-100.0
sI5
F100.0
ssS'BB00AA0AB'
p1667
(dp1668
I3
F80.0
sI4
F100.0
sI7
F-99.59367701124103
ssS'000BAAB00'
p1669
(dp1670
I8
F-99.80765991636929
sI1
F-3.1999919145984785
sI2
F-99.99997241933673
sI3
F-99.99971613069037
sI9
F-99.96994365180291
ssS'ABA0BA00B'
p1671
(dp1672
I8
F-4.0
sI4
F-79.83988095700511
sI7
F-92.13627726764098
ssS'AA0BB00BA'
p1673
(dp1674
I3
F100.0
sI6
F-3.467995233142232
sI7
F-99.4556799992758
ssS'AB0B0AB0A'
p1675
(dp1676
I8
F79.99999999720914
sI3
F100.0
sI5
F99.9999999996862
ssS'00BBAA000'
p1677
(dp1678
I8
F-2.9541191024132805
sI1
F-2.8238506771324374
sI2
F-2.6164489570843323
sI9
F-79.85734278241246
sI7
F-3.1818816890771964
ssS'B000AABBA'
p1679
(dp1680
I2
F-99.9999999955915
sI3
F100.0
sI4
F100.0
ssS'AB0A0B0AB'
p1681
(dp1682
I3
F1.8243652532107326
sI5
F-30.373013381113367
sI7
F100.0
ssS'A0B00BABA'
p1683
(dp1684
I2
F80.0
sI4
F100.0
sI5
F100.0
ssS'BBA0A000B'
p1685
(dp1686
I8
F54.9428840827735
sI4
F80.0
sI6
F80.0
sI7
F100.0
ssS'BABBAB00A'
p1687
(dp1688
I8
F100.0
sI7
F-5.0
ssS'0BAAB0B00'
p1689
(dp1690
I8
F-4.0
sI1
F-98.13648882149317
sI6
F-99.96597997511573
sI9
F-98.96222296335041
ssS'0A0BBA0BA'
p1691
(dp1692
I1
F-3.5232365367525587
sI3
F100.0
sI7
F-3.8571157453355984
ssS'ABAA0BBAB'
p1693
(dp1694
I5
F-5.0
ssS'A00000B00'
p1695
(dp1696
I2
F64.00000000000009
sI3
F65.32101429385317
sI4
F-42.104291952951534
sI5
F18.18465536941323
sI6
F40.61172509980467
sI8
F2.6822307332078292
sI9
F64.00000001446398
ssS'0BB0BAA00'
p1697
(dp1698
I8
F-100.0
sI1
F-99.99999999218907
sI4
F-100.0
sI9
F26.00074455990729
ssS'AA0B0B0BA'
p1699
(dp1700
I3
F100.0
sI5
F99.999995217031
sI7
F-98.57782370570081
ssS'BBA0A0000'
p1701
(dp1702
I8
F72.8050297423549
sI9
F80.0
sI4
F80.0
sI6
F80.0
sI7
F100.0
ssS'0AAAB00BB'
p1703
(dp1704
I1
F100.0
sI6
F-99.9999985651093
sI7
F-99.9972945003031
ssS'0AABB00BA'
p1705
(dp1706
I1
F100.0
sI6
F99.9999985651093
sI7
F-50.85923531299945
ssS'ABA0AB0BB'
p1707
(dp1708
I4
F-100.0
sI7
F100.0
ssS'A0A00B0BB'
p1709
(dp1710
I2
F100.0
sI4
F-95.17080036388047
sI5
F-99.57161092625377
sI7
F80.0
ssS'BBA0AB0A0'
p1711
(dp1712
I9
F1.3349089213720813
sI4
F-2.4108942332135697
sI7
F100.0
ssS'0000BA00B'
p1713
(dp1714
I1
F-46.400834031409005
sI2
F-96.74291641554679
sI3
F-85.98862684752388
sI4
F-99.9990812143353
sI7
F-99.15316898013577
sI8
F-98.72860365493634
ssS'000000000'
p1715
(dp1716
I1
F2.8250530188023575
sI2
F5.109487464017388
sI3
F10.985028683406233
sI4
F5.905694536994968
sI5
F5.8126448431288225
sI6
F6.224305077787147
sI7
F9.709755776776905
sI8
F27.027058613474047
sI9
F8.437362826986943
ssS'AB00B0AAB'
p1717
(dp1718
I3
F-3.999999997949322
sI4
F100.0
sI6
F-3.9999996709493697
ssS'0B00BBAA0'
p1719
(dp1720
I1
F-99.86954431872356
sI3
F-99.9724358177814
sI4
F80.0
sI9
F100.0
ssS'ABB0AB000'
p1721
(dp1722
I8
F-99.99997986271514
sI9
F100.0
sI4
F-61.89375249604528
sI7
F-99.99999802891475
ssS'AB0B0AAB0'
p1723
(dp1724
I9
F-99.5999977
sI3
F-49.70975464
sI5
F80.0
ssS'00BAB000A'
p1725
(dp1726
I8
F-99.6854861636599
sI1
F-88.65924941355166
sI2
F-99.99866613163405
sI6
F-99.96236022336537
sI7
F80.0
ssS'B000AB000'
p1727
(dp1728
I2
F57.239251299673036
sI3
F-3.199969046845457
sI4
F-70.93895837862186
sI7
F-72.3572476925018
sI8
F-3.1999688510972453
sI9
F-3.1999821382501894
ssS'B0AAB0B0A'
p1729
(dp1730
I8
F-3.986793231824631
sI2
F-3.998833235181817
sI6
F100.0
ssS'A0BBBAA00'
p1731
(dp1732
I8
F-3.380835156279285
sI9
F-4.0
sI2
F-4.0
ssS'000A0BB0A'
p1733
(dp1734
I8
F-3.199999999999733
sI1
F18.6366139203409
sI2
F-2.969108125966616
sI3
F-3.1999822924097665
sI5
F-3.0175881824646633
ssS'0AA0B0BBA'
p1735
(dp1736
I1
F100.0
sI4
F79.99999999974895
sI6
F99.99999999999923
ssS'BAAABBB0A'
p1737
(dp1738
I8
F-5.0
ssS'AA00BAB0B'
p1739
(dp1740
I8
F-99.98850045804527
sI3
F100.0
sI4
F-99.99999996125796
ssS'A0B00ABBA'
p1741
(dp1742
I2
F-96.16961147047806
sI4
F-99.99728867424113
sI5
F100.0
ssS'A0A0ABB0B'
p1743
(dp1744
I8
F74.02760000000004
sI2
F100.0
sI4
F-99.45568
ssS'A0BA0BB0A'
p1745
(dp1746
I8
F-99.99668207597645
sI2
F-96.49785099080253
sI5
F100.0
ssS'0ABAB0ABB'
p1747
(dp1748
I1
F100.0
sI6
F-100.0
ssS'B0B000BAA'
p1749
(dp1750
I2
F-99.89956050601707
sI4
F-99.95235173171605
sI5
F-99.96064238180382
sI6
F-99.99999999997175
ssS'BABAA00B0'
p1751
(dp1752
I9
F1.3515928465984217
sI6
F100.0
sI7
F13.68286520001675
ssS'0AAB0BA0B'
p1753
(dp1754
I8
F-99.6637823071093
sI1
F100.0
sI5
F99.999995217031
ssS'A0B000A0B'
p1755
(dp1756
I8
F64.10620010716936
sI2
F-99.99975487153151
sI4
F100.0
sI5
F-99.9985993183537
sI6
F-1.1503614344988655
ssS'0BB00ABAA'
p1757
(dp1758
I1
F-96.59799945586221
sI4
F-99.99999999990585
sI5
F-99.99999999856242
ssS'A0BB0BA00'
p1759
(dp1760
I8
F-99.9999780991704
sI9
F26.00002010311441
sI2
F-99.99997518083737
sI5
F-99.99997794084064
ssS'A0A0BBBBA'
p1761
(dp1762
I2
F100.0
sI4
F-100.0
ssS'A0B0B00A0'
p1763
(dp1764
I9
F-98.97864995602335
sI2
F-99.9999172811596
sI4
F-99.99925598248129
sI6
F-99.9999982044917
sI7
F80.0
ssS'A0BBBA00A'
p1765
(dp1766
I8
F-62.199999950632204
sI2
F-32.79999871257115
sI7
F-3.9988304296296904
ssS'ABBABB0A0'
p1767
(dp1768
I9
F-100.0
sI7
F100.0
ssS'AB0000BAB'
p1769
(dp1770
I3
F-4.0
sI4
F-10.408002024683471
sI5
F-4.0
sI6
F-4.0
ssS'AB0ABAB00'
p1771
(dp1772
I8
F-26.751845244317494
sI9
F-99.99999999997175
sI3
F-99.99999999737477
ssS'0ABABA0BB'
p1773
(dp1774
I1
F-100.0
sI7
F-100.0
ssS'A0B00BBAA'
p1775
(dp1776
I2
F-99.69285040755777
sI4
F-98.5429944855433
sI5
F100.0
ssS'AA0BABB00'
p1777
(dp1778
I8
F99.99999987085984
sI9
F99.99998405677
sI3
F100.0
ssS'BA0A0B0B0'
p1779
(dp1780
I9
F-4.0
sI3
F-21.99991529388503
sI5
F-4.000341980960565
sI7
F-73.16114111384053
ssS'A00ABABB0'
p1781
(dp1782
I9
F-99.99999999999993
sI2
F-99.99999999999993
sI3
F-99.99999999999993
ssS'BA0000B0A'
p1783
(dp1784
I8
F-99.68252135176904
sI3
F-99.99266328884767
sI4
F44.86941505024231
sI5
F-95.57727996392596
sI6
F-99.9072162104569
ssS'B0AAA0BB0'
p1785
(dp1786
I9
F72.91628000061715
sI2
F-99.99960319065103
sI6
F100.0
ssS'B00000000'
p1787
(dp1788
I2
F-44.727162603739956
sI3
F-22.752338501547428
sI4
F-57.63498713168679
sI5
F17.10964881859326
sI6
F-61.32618121681531
sI7
F-2.559977335234609
sI8
F-59.917816606755494
sI9
F-38.12093824645774
ssS'0AB0000AB'
p1789
(dp1790
I1
F-95.73348479797555
sI4
F-46.935118853396276
sI5
F100.0
sI6
F68.84704775293054
sI7
F31.56617081937418
ssS'A00BABBA0'
p1791
(dp1792
I9
F100.0
sI2
F99.99999999895397
sI3
F80.0
ssS'A0BB0A0B0'
p1793
(dp1794
I9
F-79.99264583665918
sI2
F-26.3680325578557
sI5
F54.80000281921986
sI7
F-4.0
ssS'A0A0B0B0B'
p1795
(dp1796
I8
F54.800104238370864
sI2
F100.0
sI4
F-99.99161088306074
sI6
F27.8144005425073
ssS'0A0ABABB0'
p1797
(dp1798
I1
F-99.9999985651093
sI3
F-99.99925598256439
sI9
F-88.65997936914147
ssS'B0AABBB0A'
p1799
(dp1800
I8
F-5.0
sI2
F-5.0
ssS'0B0AA0BAB'
p1801
(dp1802
I1
F-3.9439279329253294
sI3
F54.80000000206746
sI6
F100.0
ssS'AABBB00BA'
p1803
(dp1804
I6
F-100.0
sI7
F-100.0
ssS'BAA0B00B0'
p1805
(dp1806
I9
F1.9578870700552553
sI4
F-99.82068437311982
sI6
F-61.17939999995346
sI7
F-98.72941096882
ssS'AA0ABB00B'
p1807
(dp1808
I8
F-57.435322021475
sI3
F100.0
sI7
F99.9999999996862
ssS'0B0BA0B0A'
p1809
(dp1810
I8
F30.851713049816382
sI1
F100.0
sI3
F78.97106617711493
sI6
F-95.45790251763056
ssS'0ABAB00AB'
p1811
(dp1812
I1
F-99.9999985651093
sI6
F-99.9999985651093
sI7
F-99.999995217031
ssS'AB0B0A00B'
p1813
(dp1814
I8
F-4.0
sI3
F-59.23578824413386
sI5
F-4.0
sI7
F-4.0
ssS'0BAA0AB0B'
p1815
(dp1816
I8
F14.120601461085364
sI1
F-4.760935059999209
sI5
F100.0
ssS'AB0A0B00B'
p1817
(dp1818
I8
F39.977526043280406
sI3
F60.25206252774894
sI5
F-88.21186653339285
sI7
F100.0
ssS'B0B0A0AAB'
p1819
(dp1820
I2
F100.0
sI4
F-100.0
sI6
F-99.99999818764437
ssS'0AB0BBA0A'
p1821
(dp1822
I8
F100.0
sI1
F-99.99999999544819
sI4
F80.0
ssS'0B00BABAA'
p1823
(dp1824
I1
F-98.94080469223334
sI3
F100.0
sI4
F-47.42719285557631
ssS'00A0BBA0B'
p1825
(dp1826
I8
F-99.99693529784399
sI1
F-88.63243761073178
sI2
F-99.6662638
sI4
F-99.99999379570257
ssS'0ABBBAAAB'
p1827
(dp1828
I1
F-5.0
ssS'AA0B0B0B0'
p1829
(dp1830
I9
F76.28902180209411
sI3
F100.0
sI5
F80.0
sI7
F-80.3274458606788
ssS'BA00ABABB'
p1831
(dp1832
I3
F100.0
sI4
F-100.0
ssS'0B000ABAB'
p1833
(dp1834
I1
F-4.0
sI3
F-73.76012272306751
sI4
F-78.78564960836493
sI5
F1.2920010988806823
ssS'00BB0A00A'
p1835
(dp1836
I8
F-65.39406713571435
sI1
F57.36958451516712
sI2
F-78.00014157661344
sI5
F-27.330728819052947
sI7
F-3.1924904797488587
ssS'0B00ABA00'
p1837
(dp1838
I8
F80.0
sI1
F80.0
sI3
F100.0
sI4
F80.0
sI9
F80.0
ssS'00ABBAABB'
p1839
(dp1840
I1
F-100.0
sI2
F-100.0
ssS'0A0A00BB0'
p1841
(dp1842
I1
F-96.58893835298474
sI3
F-88.35298269496349
sI5
F-99.99999377200041
sI6
F-99.96417019673116
sI9
F64.0
ssS'0B0BB0AA0'
p1843
(dp1844
I1
F-88.65897562263403
sI3
F-99.99925231100524
sI6
F15.23160555186228
sI9
F100.0
ssS'0000BB0A0'
p1845
(dp1846
I1
F-99.98979274913336
sI2
F-99.99999998015055
sI3
F-99.99555426568764
sI4
F-73.4882570618234
sI7
F-85.32585864357414
sI9
F-99.99984103391564
ssS'0AABB0BAB'
p1847
(dp1848
I1
F100.0
sI6
F-100.0
ssS'BA0BAAABB'
p1849
(dp1850
I3
F100.0
ssS'0B000AAB0'
p1851
(dp1852
I1
F-46.43084800111305
sI3
F-49.6000741600527
sI4
F-95.78809920232
sI5
F80.0
sI9
F-51.52557497660399
ssS'ABBB0AA00'
p1853
(dp1854
I8
F-3.998460526085162
sI9
F80.0
sI5
F60.13501364891878
ssS'AB00B0A00'
p1855
(dp1856
I8
F80.0
sI9
F29.40200000586691
sI3
F-99.99997059655819
sI4
F100.0
sI6
F-99.99925416840904
ssS'00000A0B0'
p1857
(dp1858
I1
F13.732827024364354
sI2
F33.585351689901515
sI3
F-57.449496762983
sI4
F-54.5325266621264
sI5
F65.09894045129545
sI7
F4.416944110246982
sI9
F64.0000000000137
ssS'BA0B0BA00'
p1859
(dp1860
I8
F-95.24037018079132
sI9
F-97.99985281217737
sI3
F-98.85074712403417
sI5
F80.0
ssS'0000BA0B0'
p1861
(dp1862
I1
F-83.61167131333896
sI2
F29.728000015064858
sI3
F-99.99745296036562
sI4
F-99.99999999999943
sI7
F-99.94613192674854
sI9
F-62.191727113063365
ssS'AABBA000B'
p1863
(dp1864
I8
F100.0
sI6
F-3.840397726234039
sI7
F-99.99987999296775
ssS'ABB000BA0'
p1865
(dp1866
I9
F-99.69359679289714
sI4
F-99.99990745069242
sI5
F13.656748676731247
sI6
F-79.83426798400262
ssS'ABA0BB0AB'
p1867
(dp1868
I4
F-5.0
sI7
F-100.0
ssS'B000BA00A'
p1869
(dp1870
I8
F80.0
sI2
F60.47468429615867
sI3
F100.0
sI4
F-78.8256364934056
sI7
F80.0
ssS'0BAAA0B0B'
p1871
(dp1872
I8
F-3.99569057012524
sI1
F-99.94656510044226
sI6
F100.0
ssS'00B0BBAA0'
p1873
(dp1874
I1
F-62.09985103925651
sI2
F-98.63656511732592
sI4
F-96.4951495781439
sI9
F100.0
ssS'AA0BBAB00'
p1875
(dp1876
I8
F-98.88695551
sI9
F-84.87892002169554
sI3
F100.0
ssS'0BAABB000'
p1877
(dp1878
I8
F-4.0
sI1
F-99.9999999986464
sI9
F-32.79999903554071
sI7
F-99.99660056952129
ssS'0ABB0BA00'
p1879
(dp1880
I8
F-99.99993296913064
sI1
F-99.99988500524144
sI5
F26.00009349924423
sI9
F-99.99975670560659
ssS'0B000BABA'
p1881
(dp1882
I1
F-88.56740198259999
sI3
F-98.67299076252742
sI4
F-99.99144993694131
sI5
F80.0
ssS'00BABBA0A'
p1883
(dp1884
I8
F100.0
sI1
F99.99999999999746
sI2
F79.99999999999967
ssS'0000BA0BA'
p1885
(dp1886
I1
F-99.99664823181975
sI2
F-3.1998844232463286
sI3
F100.0
sI4
F-99.99999267193758
sI7
F26.00000013177764
ssS'B0B00AB0A'
p1887
(dp1888
I8
F-99.99999999999993
sI2
F-99.6216996368695
sI4
F-99.88052206544018
sI5
F-99.68457928494432
ssS'00BABB0A0'
p1889
(dp1890
I1
F-99.99997936874603
sI2
F-99.9999999397334
sI9
F-99.99999216549669
sI7
F30.45016222786019
ssS'0AB0ABB0A'
p1891
(dp1892
I8
F99.99999999999993
sI1
F100.0
sI4
F80.0
ssS'BABBA0A0B'
p1893
(dp1894
I8
F100.0
sI6
F-5.0
ssS'00B0A0B00'
p1895
(dp1896
I1
F-55.47756926008253
sI2
F-3.194477286718406
sI4
F-3.19960835578248
sI6
F-3.199644055250626
sI8
F55.0440480860371
sI9
F-50.42702613790989
ssS'BABAA0B0B'
p1897
(dp1898
I8
F100.0
sI6
F100.0
ssS'0BBAB0AAB'
p1899
(dp1900
I1
F100.0
sI6
F-100.0
ssS'A0BB0AA0B'
p1901
(dp1902
I8
F-4.0
sI2
F-4.0
sI5
F-4.0
ssS'AA0BBA0B0'
p1903
(dp1904
I9
F1.2921357634611645
sI3
F100.0
sI7
F-3.999967555551538
ssS'0B00ABA0B'
p1905
(dp1906
I8
F27.455432842994625
sI1
F27.457924597687125
sI3
F100.0
sI4
F-96.16062010351386
ssS'A0BB0A0BA'
p1907
(dp1908
I2
F-3.9402782031811325
sI5
F100.0
sI7
F-3.519514585318918
ssS'ABBBAA000'
p1909
(dp1910
I8
F-3.5225625636654336
sI9
F100.0
sI7
F-3.9871404330938014
ssS'0B00B0A0A'
p1911
(dp1912
I8
F100.0
sI1
F-99.57440974675276
sI3
F-99.99993303711588
sI4
F-98.97088749555934
sI6
F-99.99999998494593
ssS'BA0BB0AA0'
p1913
(dp1914
I9
F100.0
sI3
F-99.99999999999977
sI6
F-99.9974912534841
ssS'AB00A0B0B'
p1915
(dp1916
I8
F-4.0
sI3
F-100.0
sI4
F-99.99924448433185
sI6
F-98.96470335998931
ssS'BB00AA00B'
p1917
(dp1918
I8
F-95.70416037466606
sI3
F80.0
sI4
F100.0
sI7
F-99.90814599994948
ssS'0A0000BBA'
p1919
(dp1920
I1
F80.0
sI3
F79.99999965561042
sI4
F63.99896990114536
sI5
F2.4381848959150343
sI6
F64.00349120978211
ssS'BA0B0BABA'
p1921
(dp1922
I3
F-100.0
sI5
F-5.0
ssS'BB0A0A0AB'
p1923
(dp1924
I3
F-99.5954052475703
sI5
F100.0
sI7
F-99.97813
ssS'A0BB000AB'
p1925
(dp1926
I2
F-97.38315790587473
sI5
F-77.80615440096712
sI6
F-4.0
sI7
F-32.74603573975968
ssS'AABB00BAB'
p1927
(dp1928
I5
F100.0
sI6
F-100.0
ssS'A0BBBA0AB'
p1929
(dp1930
I2
F-100.0
sI7
F-5.0
ssS'ABAB0BAAB'
p1931
(dp1932
I5
F100.0
ssS'BABB00AAB'
p1933
(dp1934
I5
F100.0
sI6
F-100.0
ssS'B00AB00BA'
p1935
(dp1936
I2
F-4.0
sI3
F-99.99986970094915
sI6
F-96.59543727335603
sI7
F-98.18520220043877
ssS'B0000AB0A'
p1937
(dp1938
I8
F-85.58351924221732
sI2
F-99.99914059077696
sI3
F100.0
sI4
F80.0
sI5
F-99.96912462811873
ssS'B0B00000A'
p1939
(dp1940
I2
F-6.522496238988985
sI4
F-99.99555404789942
sI5
F-99.99999895525302
sI6
F-99.85820334814719
sI7
F-87.63691994156581
sI8
F-96.58950993477997
ssS'BB0000AAB'
p1941
(dp1942
I3
F-99.99993285483265
sI4
F-99.99997296194391
sI5
F37.34000203990023
sI6
F-99.9999729487868
ssS'BA0AAB00B'
p1943
(dp1944
I8
F100.0
sI3
F80.0
sI7
F-95.27115121435075
ssS'BA00000BA'
p1945
(dp1946
I3
F-2.9906727083732254
sI4
F-3.1999999999997257
sI5
F-0.2576544276458206
sI6
F3.057305726056372
sI7
F-1.9298945136611771
ssS'0BBA0ABA0'
p1947
(dp1948
I1
F-98.88662483565273
sI5
F100.0
sI9
F-91.0
ssS'0A00ABB0B'
p1949
(dp1950
I8
F100.0
sI1
F-99.97243776722941
sI3
F-99.99902598079751
sI4
F-99.99999999521124
ssS'BB0ABBAA0'
p1951
(dp1952
I9
F100.0
sI3
F-100.0
ssS'A000BBAB0'
p1953
(dp1954
I9
F-99.98896035329557
sI2
F-58.66754412090968
sI3
F-99.99900431186377
sI4
F100.0
ssS'0AB00BA00'
p1955
(dp1956
I8
F-99.65447589643213
sI1
F-99.9693004613369
sI4
F-98.9721291674147
sI5
F26.393153859675166
sI9
F64.02728392053642
ssS'A0ABAB0BB'
p1957
(dp1958
I2
F100.0
sI7
F100.0
ssS'A0BB0ABA0'
p1959
(dp1960
I9
F-99.99999391302146
sI2
F-99.99999999998589
sI5
F80.0
ssS'BAAB000AB'
p1961
(dp1962
I5
F100.0
sI6
F-99.99999956953279
sI7
F-99.9999751285612
ssS'A00BB000A'
p1963
(dp1964
I8
F-99.99207707244945
sI2
F-99.99999945761103
sI3
F-96.595519942
sI6
F-1.6251128347252686
sI7
F-99.96988048415612
ssS'ABABB00A0'
p1965
(dp1966
I9
F-85.24973313999999
sI6
F18.94486893523436
sI7
F-97.64088222645395
ssS'AB000AB0B'
p1967
(dp1968
I8
F-4.0
sI3
F-93.71884225700812
sI4
F-98.22645032042945
sI5
F-99.77805384668936
ssS'A000BB000'
p1969
(dp1970
I2
F-98.70570256995174
sI3
F-99.99751993964924
sI4
F74.85162505477741
sI7
F-99.6928509692991
sI8
F-85.9824351004554
sI9
F-66.37647160295296
ssS'B00AAB00B'
p1971
(dp1972
I8
F-99.99751993407098
sI2
F-99.99999776778817
sI3
F-3.999611324814228
sI7
F-96.28931985352982
ssS'AB0AAB0BB'
p1973
(dp1974
I3
F-100.0
sI7
F100.0
ssS'ABA0ABBAB'
p1975
(dp1976
I4
F-5.0
ssS'00BABA000'
p1977
(dp1978
I8
F-95.42060101185446
sI1
F-99.99993123007204
sI2
F-99.9897271997518
sI9
F-98.69519583080343
sI7
F-45.12019049413422
ssS'000BBA000'
p1979
(dp1980
I1
F-3.085692739208899
sI2
F-57.0460974743019
sI3
F-3.1660901183131784
sI7
F-3.1553481214412242
sI8
F-59.59040909006659
sI9
F16.193133571543772
ssS'A00AB0BB0'
p1981
(dp1982
I9
F-99.98951754940634
sI2
F-98.97939216376842
sI3
F-99.69381216106436
sI6
F-100.0
ssS'A0ABB0ABB'
p1983
(dp1984
I2
F100.0
sI6
F-100.0
ssS'A0000AB0B'
p1985
(dp1986
I8
F45.61262658824434
sI2
F-86.77575835526623
sI3
F-93.90159991249462
sI4
F-61.82199995140196
sI5
F-99.99977444311102
ssS'0BA000A0B'
p1987
(dp1988
I8
F2.6285317353773685
sI1
F80.0
sI4
F80.0
sI5
F100.0
sI6
F72.28629331002934
ssS'B0A0AB00B'
p1989
(dp1990
I8
F80.0
sI2
F80.0
sI4
F-3.999652538764827
sI7
F100.0
ssS'A000BBBA0'
p1991
(dp1992
I9
F-99.99999776631668
sI2
F-99.99999743679845
sI3
F-99.99999902530229
sI4
F-32.79999891207218
ssS'AA00BBBA0'
p1993
(dp1994
I9
F-99.99940950999999
sI3
F100.0
sI4
F-87.5665089282088
ssS'BBA0AAB00'
p1995
(dp1996
I8
F-99.56604762499519
sI9
F99.99999999999977
sI4
F100.0
ssS'AB0BB0AAB'
p1997
(dp1998
I3
F-100.0
sI6
F-5.0
ssS'AABBAAB0B'
p1999
(dp2000
I8
F100.0
ssS'AB0BBAA0B'
p2001
(dp2002
I8
F-5.0
sI3
F-100.0
ssS'0BB00BA0A'
p2003
(dp2004
I8
F100.0
sI1
F80.0
sI4
F-98.9759240376475
sI5
F-99.8963623638655
ssS'0B00BAAAB'
p2005
(dp2006
I1
F1.2920312493458823
sI3
F-99.99999874647948
sI4
F-87.3324759679555
ssS'B0A0BAAB0'
p2007
(dp2008
I9
F100.0
sI2
F29.73770449982426
sI4
F-99.99998405677
ssS'AAB00A0BB'
p2009
(dp2010
I4
F-87.6118417804947
sI5
F-93.9458205680165
sI7
F-3.995794921808181
ssS'AB000BAAB'
p2011
(dp2012
I3
F80.0
sI4
F100.0
sI5
F-98.94830872550162
ssS'BA00A0BB0'
p2013
(dp2014
I9
F-99.99998926011477
sI3
F-99.99999999294894
sI4
F-88.61101119218955
sI6
F-100.0
ssS'B00AB0BAA'
p2015
(dp2016
I2
F-99.99998926011428
sI3
F-3.9999991314472374
sI6
F26.00827469489863
ssS'0BBBA0A00'
p2017
(dp2018
I8
F-95.327794
sI1
F-3.9988423864294758
sI6
F-79.83999999998102
sI9
F-99.98925307760665
ssS'BA0B0AABB'
p2019
(dp2020
I3
F-100.0
sI5
F-5.0
ssS'00AABB0B0'
p2021
(dp2022
I1
F-99.99999819203772
sI2
F-3.9999999999999596
sI9
F-98.02229328614942
sI7
F-62.196849503541046
ssS'BBABB0AA0'
p2023
(dp2024
I9
F100.0
sI6
F-100.0
ssS'B0B00ABA0'
p2025
(dp2026
I9
F-99.99999999895397
sI2
F-98.9510267439258
sI4
F-98.95078350076447
sI5
F-99.99999994639283
ssS'00A00BA0B'
p2027
(dp2028
I8
F39.64882208853278
sI1
F80.0
sI2
F80.0
sI4
F80.0
sI5
F100.0
ssS'BB0000AA0'
p2029
(dp2030
I9
F100.0
sI3
F80.0
sI4
F26.12542309405599
sI5
F-96.49681625975025
sI6
F-62.19976839757932
ssS'BA000BA0B'
p2031
(dp2032
I8
F-99.96989673028993
sI3
F-85.22118901679981
sI4
F-99.96559608022288
sI5
F-96.25495486661914
ssS'B0B0AB0A0'
p2033
(dp2034
I9
F-99.99997200729157
sI2
F100.0
sI4
F-99.99173312043746
sI7
F-99.69381998080472
ssS'B0ABBAA00'
p2035
(dp2036
I8
F-96.5979921650519
sI9
F100.0
sI2
F-62.199932825534646
ssS'B00AB0BA0'
p2037
(dp2038
I9
F-99.99999678514018
sI2
F-99.88353819999965
sI3
F-99.83670368468967
sI6
F-100.0
ssS'00BAAB0B0'
p2039
(dp2040
I1
F-99.6937524812822
sI2
F-99.94965278935392
sI9
F-3.999999993165454
sI7
F-99.9815271399999
ssS'A00B0A0BB'
p2041
(dp2042
I2
F-99.90774919071963
sI3
F-99.99999888599855
sI5
F-93.9518809565051
sI7
F-4.0
ssS'BA0AB0B0A'
p2043
(dp2044
I8
F-99.45395952651084
sI3
F-2.365329723878505
sI6
F-58.797992164178766
ssS'ABAB0B0BA'
p2045
(dp2046
I5
F100.0
sI7
F-100.0
ssS'B00B000AA'
p2047
(dp2048
I2
F-47.02134403337348
sI3
F79.99918118651978
sI5
F79.96342689605841
sI6
F76.58650720649983
sI7
F100.0
ssS'AB0BBAA00'
p2049
(dp2050
I8
F-3.9999999165606015
sI9
F-98.97856875388413
sI3
F-98.0209695375207
ssS'00BB00AAB'
p2051
(dp2052
I1
F-91.38087574638024
sI2
F-99.87794654020858
sI5
F-94.10639775989249
sI6
F-79.99997089527437
ssS'B00ABA0BA'
p2053
(dp2054
I2
F14.172152612837003
sI3
F100.0
sI7
F-32.73486072672068
ssS'AAB0BA0B0'
p2055
(dp2056
I9
F-99.98518431714689
sI4
F-99.99999999960431
sI7
F54.80385786818466
ssS'000BA0BA0'
p2057
(dp2058
I1
F80.0
sI2
F100.0
sI3
F-99.93281951432397
sI6
F-99.629322733127
sI9
F-99.99148140407915
ssS'ABAB0BABA'
p2059
(dp2060
I5
F100.0
ssS'B00BAB00A'
p2061
(dp2062
I8
F-99.99999812857824
sI2
F-99.97222050787919
sI3
F-99.99993233329283
sI7
F80.0
ssS'A0AB0B0AB'
p2063
(dp2064
I2
F100.0
sI5
F79.99999999986852
sI7
F-46.345530056769974
ssS'AAB000BAB'
p2065
(dp2066
I4
F-99.99994685589999
sI5
F100.0
sI6
F-88.26122194385795
ssS'0B0BAB00A'
p2067
(dp2068
I8
F80.0
sI1
F100.0
sI3
F80.0
sI7
F80.0
ssS'B0000B00A'
p2069
(dp2070
I2
F-3.199998378196159
sI3
F-20.653489464585725
sI4
F-3.1999999532018597
sI5
F-3.199965000219821
sI7
F72.52680782291701
sI8
F-3.162846572273601
ssS'BB00ABA0A'
p2071
(dp2072
I8
F100.0
sI3
F100.0
sI4
F-88.65999993654052
ssS'ABB00AABB'
p2073
(dp2074
I4
F100.0
sI5
F-5.0
ssS'000BBA00A'
p2075
(dp2076
I8
F80.0
sI1
F7.9714589884826985
sI2
F14.435349069942056
sI3
F100.0
sI7
F80.0
ssS'BB00AAB0A'
p2077
(dp2078
I8
F-99.99999999651321
sI3
F100.0
sI4
F99.9999985651093
ssS'BB00A0ABA'
p2079
(dp2080
I3
F100.0
sI4
F-99.60172270627461
sI6
F-99.99999993654052
ssS'BBABAA0B0'
p2081
(dp2082
I9
F100.0
sI7
F100.0
ssS'00A0BBB0A'
p2083
(dp2084
I8
F-99.99864062531803
sI1
F-62.199081459964404
sI2
F-99.99994419798885
sI4
F-4.0
ssS'000BABA0B'
p2085
(dp2086
I8
F-99.89715501786269
sI1
F-99.9073064865002
sI2
F-62.18821214576215
sI3
F100.0
ssS'BA0AABBB0'
p2087
(dp2088
I9
F-5.0
sI3
F-100.0
ssS'AB00B000A'
p2089
(dp2090
I8
F42.71318506455819
sI3
F-98.88752591151952
sI4
F-96.29173731671999
sI6
F-99.9999980530395
sI7
F63.80022376264857
ssS'A0B000BBA'
p2091
(dp2092
I2
F-96.25245635179827
sI4
F-61.79121720473427
sI5
F100.0
sI6
F-98.55103348038496
ssS'BAB0A0ABB'
p2093
(dp2094
I4
F-100.0
sI6
F-5.0
ssS'AB0BAA0B0'
p2095
(dp2096
I9
F100.0
sI3
F79.99999999720868
sI7
F79.999987245416
ssS'0BBAA0A0B'
p2097
(dp2098
I8
F-99.9271
sI1
F100.0
sI6
F99.9999985651093
ssS'A0AABBB0B'
p2099
(dp2100
I8
F-5.0
sI2
F100.0
ssS'ABA0B0BA0'
p2101
(dp2102
I9
F60.092031324665214
sI4
F-4.0
sI6
F-3.9996499498798057
ssS'AA0B0ABB0'
p2103
(dp2104
I9
F79.9821733256
sI3
F100.0
sI5
F-88.546305760696
ssS'0A0B0AB0B'
p2105
(dp2106
I8
F-99.99960063075366
sI1
F-99.99682530095053
sI3
F-99.9996873898444
sI5
F-99.69381747177381
ssS'ABA0000B0'
p2107
(dp2108
I9
F-99.99977623774683
sI4
F-96.83487659739139
sI5
F80.0
sI6
F-99.99925596795048
sI7
F-99.99999999556786
ssS'0A0000B00'
p2109
(dp2110
I1
F64.30240000003515
sI3
F-50.84363690862937
sI4
F-34.32388698189955
sI5
F4.286705697574645
sI6
F25.17394673739922
sI8
F-38.525045188244896
sI9
F8.567631159134738
ssS'0BAB0BBAA'
p2111
(dp2112
I1
F-100.0
sI5
F-100.0
ssS'000BA00AB'
p2113
(dp2114
I1
F55.59174597397031
sI2
F100.0
sI3
F80.0
sI6
F-2.2611259867415834
sI7
F80.0
ssS'BAAB0A0BB'
p2115
(dp2116
I5
F-100.0
sI7
F-100.0
ssS'00A0AB00B'
p2117
(dp2118
I8
F80.0
sI1
F80.0
sI2
F80.0
sI4
F-2.264021540938591
sI7
F100.0
ssS'00A0BB00A'
p2119
(dp2120
I8
F-99.99555417818583
sI1
F-93.71987333654016
sI2
F-99.9505359837895
sI4
F-2.8999151210908103
sI7
F-98.97525551787415
ssS'AB0B0BA00'
p2121
(dp2122
I8
F-98.64814599275678
sI9
F-99.90537577521303
sI3
F-88.65173313999998
sI5
F80.0
ssS'0000ABBBA'
p2123
(dp2124
I1
F100.0
sI2
F1.3052076346715484
sI3
F-3.8571159993295736
sI4
F-1.9361199220138587
ssS'AB0B0BAA0'
p2125
(dp2126
I9
F100.0
sI3
F-84.14527232914264
sI5
F79.9999783152546
ssS'AB0BAAB0B'
p2127
(dp2128
I8
F-5.0
sI3
F-100.0
ssS'ABAABBB0A'
p2129
(dp2130
I8
F-5.0
ssS'A000ABB00'
p2131
(dp2132
I8
F80.0
sI9
F100.0
sI2
F80.0
sI3
F80.0
sI4
F-76.60405520274546
ssS'A0BAAB0B0'
p2133
(dp2134
I9
F100.0
sI2
F-99.98842002468899
sI7
F100.0
ssS'AAB0BB000'
p2135
(dp2136
I8
F-100.0
sI9
F-99.99999979156136
sI4
F-99.99999999995248
sI7
F-99.99999983288996
ssS'A0B0ABBA0'
p2137
(dp2138
I9
F100.0
sI2
F99.99999998837738
sI4
F26.130250409595106
ssS'00A0BB0A0'
p2139
(dp2140
I1
F-87.6391704702149
sI2
F-47.457932368118364
sI4
F0.20529102081630768
sI9
F-99.8077661385365
sI7
F-99.98867041403638
ssS'000B0B0A0'
p2141
(dp2142
I1
F-79.64275408214976
sI2
F-96.49756630197662
sI3
F-99.97473804916261
sI5
F67.47793600170596
sI7
F-88.25895728940947
sI9
F26.21579768905997
ssS'BBABB0A0A'
p2143
(dp2144
I8
F100.0
sI6
F100.0
ssS'ABA00BBAB'
p2145
(dp2146
I4
F-5.0
sI5
F-5.0
ssS'B000BABAA'
p2147
(dp2148
I2
F-99.99999999999997
sI3
F100.0
sI4
F-99.90790088080242
ssS'ABBAABBA0'
p2149
(dp2150
I9
F100.0
ssS'A000B00B0'
p2151
(dp2152
I2
F-3.1753683696042154
sI3
F-99.9999999999997
sI4
F-88.65998123276147
sI6
F-99.78226379597928
sI7
F-99.99999999998681
sI9
F-99.99651788925539
ssS'00A0A00BB'
p2153
(dp2154
I1
F-99.99976873233648
sI2
F-88.56460311360405
sI4
F-62.19993116218336
sI6
F-96.59695907932827
sI7
F100.0
ssS'ABB0000BA'
p2155
(dp2156
I4
F-87.30212140239189
sI5
F100.0
sI6
F-95.48200925540408
sI7
F-83.89288818553959
ssS'A0BB0ABAB'
p2157
(dp2158
I2
F-100.0
sI5
F-5.0
ssS'A0A00B00B'
p2159
(dp2160
I8
F64.00000254527463
sI2
F100.0
sI4
F80.0
sI5
F80.0
sI7
F80.0
ssS'0BABAAB0B'
p2161
(dp2162
I8
F-100.0
sI1
F-100.0
ssS'00B00AB0A'
p2163
(dp2164
I8
F-99.98978633177623
sI1
F-96.59793298922351
sI2
F-89.5439380629094
sI4
F-99.59945977805566
sI5
F80.0
ssS'0B0BAABAB'
p2165
(dp2166
I1
F-5.0
sI3
F-100.0
ssS'AABB0A00B'
p2167
(dp2168
I8
F-2.3995091678737652
sI5
F-3.999999149445173
sI7
F-4.0
ssS'B000ABA0B'
p2169
(dp2170
I8
F27.024116119883928
sI2
F27.15179810317251
sI3
F100.0
sI4
F-99.590182316375
ssS'ABB000000'
p2171
(dp2172
I4
F64.01068037633527
sI5
F72.86254701831123
sI6
F15.919827688332198
sI7
F64.00000000011744
sI8
F-3.0230033022986733
sI9
F-77.4630492219232
ssS'B0B00A0A0'
p2173
(dp2174
I9
F-99.99950039838562
sI2
F-71.71355789361793
sI4
F-99.97237683658132
sI5
F67.2295562
sI7
F-99.99902658002057
ssS'BBAB00AAB'
p2175
(dp2176
I5
F100.0
sI6
F-100.0
ssS'ABAA0B00B'
p2177
(dp2178
I8
F13.795750645880005
sI5
F20.662579265720005
sI7
F100.0
ssS'0A000BABB'
p2179
(dp2180
I1
F27.365855289373812
sI3
F80.0
sI4
F-99.98115292374266
sI5
F26.428908126663387
ssS'BA0B0AAB0'
p2181
(dp2182
I9
F-3.985982980843418
sI3
F80.0
sI5
F13.640349333884004
ssS'0BA0BAB00'
p2183
(dp2184
I8
F-1.7503574103535957
sI1
F-99.45395279356376
sI4
F-99.95877167346133
sI9
F100.0
ssS'A000B0B00'
p2185
(dp2186
I2
F-98.85992080428495
sI3
F-3.1950324603970475
sI4
F-83.99668236606722
sI6
F-99.99999999966907
sI8
F-99.9999999381041
sI9
F-15.33837272761086
ssS'BBAAB0000'
p2187
(dp2188
I8
F-93.95199970291549
sI9
F-99.97841430866302
sI6
F-99.9999799115302
sI7
F-99.99997513915459
ssS'A00BB0A0B'
p2189
(dp2190
I8
F-32.80000000000001
sI2
F-99.99173297728335
sI3
F-99.99999983728337
sI6
F-4.0
ssS'BABABA0B0'
p2191
(dp2192
I9
F-100.0
sI7
F-100.0
ssS'BBA0AABB0'
p2193
(dp2194
I9
F100.0
sI4
F100.0
ssS'0BBA0A0B0'
p2195
(dp2196
I1
F-57.674705788022266
sI9
F-98.67222426184969
sI5
F100.0
sI7
F-96.59799818748762
ssS'BBAB00AA0'
p2197
(dp2198
I9
F100.0
sI5
F99.99999956953279
sI6
F79.99999804854865
ssS'ABBBAAAB0'
p2199
(dp2200
I9
F100.0
ssS'0BBA00000'
p2201
(dp2202
I1
F64.42040213629984
sI5
F-99.99954523562825
sI6
F-99.96316683944019
sI7
F-88.5564049708851
sI8
F-99.91027671337275
sI9
F-99.28187618293708
ssS'AB0AABBAB'
p2203
(dp2204
I3
F-5.0
ssS'0AB0BB0A0'
p2205
(dp2206
I1
F-99.99999996125796
sI4
F-99.87639148852769
sI9
F-99.89717517032102
sI7
F-99.69057346976724
ssS'00BB0A0AB'
p2207
(dp2208
I1
F-4.0
sI2
F-45.482502468486956
sI5
F-3.5225626393384935
sI7
F-77.95189886223449
ssS'0AA0B000B'
p2209
(dp2210
I8
F-99.69381981649653
sI1
F100.0
sI4
F26.308660650931984
sI6
F-99.99999326686668
sI7
F27.020600726025975
ssS'00B00ABBA'
p2211
(dp2212
I1
F-62.199999999986034
sI2
F-94.52887525890742
sI4
F-96.5979979595993
sI5
F80.0
ssS'00000AB00'
p2213
(dp2214
I1
F12.459662224848469
sI2
F-1.157165885178074
sI3
F1.3986727516029251
sI4
F39.748738078588005
sI5
F-2.0307756434501174
sI8
F-20.673157833063218
sI9
F65.40113984047456
ssS'B0000AABB'
p2215
(dp2216
I2
F-4.000122285547321
sI3
F67.54753743998813
sI4
F-95.23435414690175
sI5
F80.0
ssS'0B00000AB'
p2217
(dp2218
I1
F-3.197639907583236
sI3
F-3.2
sI4
F-78.51012633015007
sI5
F-14.166301719001353
sI6
F-3.2000000000000135
sI7
F-62.89756273982811
ssS'0A0AB0BBA'
p2219
(dp2220
I1
F27.020600000399014
sI3
F80.0
sI6
F-99.999776793451
ssS'0BABAAB00'
p2221
(dp2222
I8
F-99.82195730684502
sI1
F-1.7761619664246675
sI9
F100.0
ssS'A0AABBBAB'
p2223
(dp2224
I2
F100.0
ssS'ABABB000A'
p2225
(dp2226
I8
F-96.25515930226605
sI6
F100.0
sI7
F-99.99999999999997
ssS'0AABB0000'
p2227
(dp2228
I8
F-60.92979327401598
sI1
F100.0
sI9
F-99.99916229533561
sI6
F80.0
sI7
F-98.89927554619166
ssS'00A000BB0'
p2229
(dp2230
I1
F-61.17883356041871
sI2
F-99.99918288137096
sI4
F-89.35459397729205
sI5
F-75.69322032181246
sI6
F-96.59549930618363
sI9
F67.45073985623267
ssS'BAB00A000'
p2231
(dp2232
I8
F-24.102457635020464
sI9
F-73.39039206205611
sI4
F-67.29122149831791
sI5
F80.0
sI7
F19.968954510511665
ssS'A00BB00BA'
p2233
(dp2234
I2
F-99.99999928212299
sI3
F-99.99999748560025
sI6
F-99.99999998142755
sI7
F-99.99997519941601
ssS'00B00AB00'
p2235
(dp2236
I1
F-99.81723629073102
sI2
F-99.99993204422532
sI4
F-99.99925597632699
sI5
F-3.199999358254918
sI8
F-99.95405398883592
sI9
F-95.61745931519525
ssS'ABAA0BBB0'
p2237
(dp2238
I9
F-100.0
sI5
F-100.0
ssS'BA0ABB0BA'
p2239
(dp2240
I3
F-5.0
sI7
F-5.0
ssS'0BBABBAA0'
p2241
(dp2242
I1
F100.0
sI9
F100.0
ssS'BBA0ABBAA'
p2243
(dp2244
I4
F-5.0
ssS'0ABBAAB0B'
p2245
(dp2246
I8
F100.0
sI1
F-100.0
ssS'00A0BB0AB'
p2247
(dp2248
I1
F-50.85993123007631
sI2
F-100.0
sI4
F-100.0
sI7
F-100.0
ssS'BB0AAB000'
p2249
(dp2250
I8
F-73.77117453472434
sI9
F-99.95101020714338
sI3
F-2.412397164833413
sI7
F-99.99997312623394
ssS'B0AB0B0A0'
p2251
(dp2252
I9
F-99.97237683698641
sI2
F26.306201950039025
sI5
F-99.9689762149807
sI7
F-99.9906704211153
ssS'BA0AAB0B0'
p2253
(dp2254
I9
F-4.0
sI3
F-3.8571038129934934
sI7
F-3.9999997448350393
ssS'A0BBBAAB0'
p2255
(dp2256
I9
F-100.0
sI2
F-5.0
ssS'000B0B0AA'
p2257
(dp2258
I1
F-99.56266712871157
sI2
F30.517773571934086
sI3
F-98.97939160988221
sI5
F80.0
sI7
F100.0
ssS'0BA0BB0AA'
p2259
(dp2260
I1
F-99.98397960113296
sI4
F-3.9999962429483777
sI7
F100.0
ssS'ABA0ABB00'
p2261
(dp2262
I8
F-3.3768294065620807
sI9
F100.0
sI4
F60.10489446769876
ssS'000BBAA00'
p2263
(dp2264
I8
F-3.199990712553991
sI1
F-3.1897646033214793
sI2
F-2.794504608728169
sI3
F21.56056436392953
sI9
F80.0
ssS'B0AB0A0AB'
p2265
(dp2266
I2
F-99.99999998837738
sI5
F-99.9915099201355
sI7
F-99.99999214601596
ssS'0A0ABA0BB'
p2267
(dp2268
I1
F-99.99925598259873
sI3
F-99.99999999651321
sI7
F-99.657773733462
ssS'00B0A0B0A'
p2269
(dp2270
I8
F80.0
sI1
F100.0
sI2
F80.0
sI4
F80.0
sI6
F80.0
ssS'0ABBBA0BA'
p2271
(dp2272
I1
F-100.0
sI7
F-5.0
ssS'0AAB000BB'
p2273
(dp2274
I1
F100.0
sI5
F78.66418827981441
sI6
F-33.44376438010606
sI7
F80.0
ssS'00A0B0BA0'
p2275
(dp2276
I1
F48.77393934991012
sI2
F-69.37140980489906
sI4
F-3.148961136286328
sI6
F-3.163689836743556
sI9
F-3.19607570318716
ssS'BAB0B0A00'
p2277
(dp2278
I8
F-57.747363688755755
sI9
F-3.5237105266102144
sI4
F-32.798630551865216
sI6
F-99.99811139694968
ssS'AA00AB0BB'
p2279
(dp2280
I3
F100.0
sI4
F-99.999995217031
sI7
F26.011735663980488
sssS'rewards'
p2281
(lp2282
s.