(dp0
S'policy'
p1
S'sarsa'
p2
sS'model'
p3
(dp4
S'0BBBABA0A'
p5
(dp6
I8
F99.99999999999997
sI1
F99.99999999999997
ssS'A00B0B0BA'
p7
(dp8
I2
F-10.85340822851154
sI3
F-6.231887955896031
sI5
F99.99999999999997
sI7
F31.262925441488797
ssS'ABAABB00B'
p9
(dp10
I8
F-4.99999999991251
sI7
F99.99999999999997
ssS'B0B0A0B0A'
p11
(dp12
I8
F-99.98820158935528
sI2
F-95.5830984871715
sI4
F-99.7651290117714
sI6
F-99.9960040287292
ssS'A00B0B00A'
p13
(dp14
I8
F-5.050424946028798
sI2
F26.846122938120985
sI3
F31.11267190361525
sI5
F99.9999999999999
sI7
F23.028289150681136
ssS'0B00AA00B'
p15
(dp16
I8
F14.187240586977174
sI1
F2.5844956984201115
sI3
F60.35458920296731
sI4
F99.99999999999997
sI7
F78.34610604735578
ssS'ABAAB0B00'
p17
(dp18
I8
F-3.999999999999998
sI9
F-89.02039162664553
sI6
F-86.16296122752968
ssS'B000AB0AB'
p19
(dp20
I2
F99.99999999999997
sI3
F70.16999618975844
sI4
F-95.84857590827248
sI7
F-71.68360715018142
ssS'BBA0A0B00'
p21
(dp22
I8
F-99.07580833667664
sI9
F-90.55067877577113
sI4
F23.983404374506968
sI6
F-96.12266380631256
ssS'0AB0A0ABB'
p23
(dp24
I1
F-81.683860780376
sI4
F-72.77341988565016
sI6
F0.13343269515254863
ssS'BB0BA00AA'
p25
(dp26
I3
F20.513552670342584
sI6
F-89.26258176
sI7
F99.99999999981212
ssS'AB000BA0B'
p27
(dp28
I8
F8.355348813086117
sI3
F72.73818253012548
sI4
F99.99999999999997
sI5
F-9.901662516315614
ssS'ABBABA00B'
p29
(dp30
I8
F-99.99970068446467
sI7
F99.99999999999997
ssS'0BA0B000A'
p31
(dp32
I8
F79.93454035056708
sI1
F-67.59356788598124
sI4
F-9.407513462899953
sI6
F99.99999999999997
sI7
F-14.385064694779167
ssS'0BBABA0AB'
p33
(dp34
I1
F-99.9594351807927
sI7
F-99.94929397599087
ssS'AAB0A0B0B'
p35
(dp36
I8
F99.99999999999997
sI4
F-86.5782272
sI6
F-92.25745991492624
ssS'0BA00B00A'
p37
(dp38
I8
F13.232208788025584
sI1
F-36.007575679988875
sI4
F-3.0521513023237183
sI5
F53.10084074433223
sI7
F78.4663668418383
ssS'B0B0BA00A'
p39
(dp40
I8
F-84.37546726226644
sI2
F-86.0746167757876
sI4
F-97.94198047790326
sI7
F-99.37912291160339
ssS'0BB0ABAA0'
p41
(dp42
I1
F-57.77822720000002
sI4
F-93.12805232640001
sI9
F99.99999970357226
ssS'ABA0BB0A0'
p43
(dp44
I9
F-89.5396977944961
sI4
F-2.2150882048908467
sI7
F-99.67045634318883
ssS'BABB0B0AA'
p45
(dp46
I5
F99.9999999999871
sI7
F99.98670772004215
ssS'0B0BB0AA0'
p47
(dp48
I1
F-53.84588555931912
sI3
F-71.11795213642996
sI6
F11.932730653631134
sI9
F99.99999999999997
ssS'B0ABA00AB'
p49
(dp50
I2
F99.99999723930146
sI6
F-24.2035210978486
sI7
F79.02848
ssS'BB00BAA00'
p51
(dp52
I8
F-80.97756798031195
sI9
F-92.3825121901403
sI3
F-89.41407859091052
sI4
F-97.18525023289344
ssS'BA0AABB00'
p53
(dp54
I8
F99.99999999999997
sI9
F10.814161082161913
sI3
F13.43536573291339
ssS'BBA00B00A'
p55
(dp56
I8
F11.299486703753582
sI4
F-4.273323389087042
sI5
F-0.060189590994658815
sI7
F63.150351047368936
ssS'AB00B00AB'
p57
(dp58
I3
F-31.1548544330322
sI4
F2.0281836753029188
sI6
F-16.54964963775241
sI7
F-21.70175238711814
ssS'BA00000AB'
p59
(dp60
I3
F-15.98616018944
sI4
F-20.0
sI5
F20.0
sI6
I0
sI7
I0
ssS'BA0A0ABB0'
p61
(dp62
I9
I0
sI3
F-20.0
sI5
F48.8
ssS'BA00AAB0B'
p63
(dp64
I8
F83.222784
sI3
F-36.0
sI4
F20.0
ssS'AB0B000A0'
p65
(dp66
I9
F66.47024497809522
sI3
F18.013324876155515
sI5
F46.3933760963991
sI6
I0
sI7
F31.61827195842776
ssS'AABBA00B0'
p67
(dp68
I9
F99.99999999999997
sI6
F19.471720859578113
sI7
F-1.0162873095093738
ssS'B00BBAA00'
p69
(dp70
I8
F-56.52478633595786
sI9
F75.81187574863188
sI2
F-90.81252412402242
sI3
F-67.72358839662857
ssS'BB000AB0A'
p71
(dp72
I8
F-91.73362520830128
sI3
F99.99999999999997
sI4
F-15.212744217859314
sI5
F-29.57706286735222
ssS'AABBBA0B0'
p73
(dp74
I9
F-99.99999999999997
sI7
F-4.999999999999998
ssS'BA0AB0000'
p75
(dp76
I8
F-84.84036067613171
sI9
F-3.919420729033046
sI3
F-85.28919391268045
sI6
F-84.90737525786561
sI7
F-98.07258006143664
ssS'0B00AB0A0'
p77
(dp78
I7
F46.28421488129184
sI1
F-6.986296105461891
sI3
F6.753923664700396
sI4
F-58.135161705393934
sI9
F16.651505235628935
ssS'AB0AB00AB'
p79
(dp80
I3
F35.827628304466586
sI6
F14.389053307453874
sI7
F99.9999215362283
ssS'0B0AA00B0'
p81
(dp82
I7
F56.52054523421434
sI1
F40.67651336201732
sI3
F52.71327935130172
sI6
F99.99908656147667
sI9
F57.58888404613589
ssS'B00BBAA0A'
p83
(dp84
I8
F86.5782272
sI2
F79.99973192437875
sI3
F99.99998683596354
ssS'B000BA0BA'
p85
(dp86
I2
F20.694716420912556
sI3
F99.99999999999997
sI4
F-45.670400993184394
sI7
F-57.724704232391716
ssS'AABBA00BB'
p87
(dp88
I6
F-99.99999999999997
sI7
F-99.99999999999997
ssS'AA00000BB'
p89
(dp90
I3
F99.99999999999997
sI4
F24.707301424319287
sI5
F-22.96774331549168
sI6
F-19.26623848757329
sI7
F70.63791938066393
ssS'BBA0ABB0A'
p91
(dp92
I8
F-99.99999999999997
sI4
F-4.999999999999998
ssS'AB00BA00B'
p93
(dp94
I8
F-12.218653081748919
sI3
F-73.93511822759788
sI4
F-50.39004662565048
sI7
F-66.61794746734218
ssS'00BA0ABB0'
p95
(dp96
I1
F4.616529007035584
sI2
F-20.184471554498487
sI5
F99.9999999991041
sI9
F29.898414303484145
ssS'B00000B0A'
p97
(dp98
I2
F-97.2413774090248
sI3
F-86.92611165936054
sI4
F-65.73907238330963
sI5
F-95.32603746585045
sI6
F-94.48375998045555
sI8
F-95.59748237219881
ssS'A0B0BBABA'
p99
(dp100
I2
F-99.99999997453705
sI4
F99.99999999999997
ssS'00000AB00'
p101
(dp102
I1
F13.745577738403053
sI2
F-16.675571681664902
sI3
F-7.750584441697066
sI4
F-3.692851540688296
sI5
F13.011238215670176
sI8
F-9.730482329736175
sI9
F31.37701712471343
ssS'ABA0BBBAA'
p103
(dp104
I4
F-4.999999999999998
ssS'0A00ABABB'
p105
(dp106
I1
F-72.62747035722842
sI3
F99.9999999991041
sI4
F-81.97288140800005
ssS'ABA0BB00A'
p107
(dp108
I8
F-98.61524003165925
sI4
F-97.9843921561592
sI7
F-97.74820018631475
ssS'AB00B00A0'
p109
(dp110
I9
F4.942808483814822
sI3
F2.997554474488133
sI4
F16.01884196995302
sI6
F10.993789779402888
sI7
F67.39201533184931
ssS'BABAB00BA'
p111
(dp112
I6
F-99.9999990953743
sI7
F-4.999999999999998
ssS'0ABB0A000'
p113
(dp114
I8
F3.7743839861242954
sI1
F-0.2302450572585436
sI7
F5.435489275601109
sI5
F1.1800748564477999
sI9
F-12.514397525277626
ssS'000B000AB'
p115
(dp116
I1
F-25.353798073810665
sI2
F-13.219932308645443
sI3
F-14.930003739763693
sI5
F-11.298234599544775
sI6
F-38.272103178927395
sI7
F-8.546586258939282
ssS'0BA0B0000'
p117
(dp118
I1
F-85.68861359713851
sI4
F-94.76719481074143
sI6
F-93.4219088743994
sI7
F-94.86448002281132
sI8
F-16.615140119328434
sI9
F-70.56924634732476
ssS'0000A00B0'
p119
(dp120
I1
F51.437800602533336
sI2
F-3.1517086168163875
sI3
F23.904074141075185
sI4
F29.717618819956964
sI6
F33.88462594348984
sI7
F38.410528352264926
sI9
F32.198859800660856
ssS'BA0ABB000'
p121
(dp122
I8
F-77.94197992587227
sI9
F-4.091839311413139
sI3
F-39.337635978070985
sI7
F-38.95223142660193
ssS'AB0BAABB0'
p123
(dp124
I9
F99.99999999999997
sI3
F-99.99999999999987
ssS'0A0AB00B0'
p125
(dp126
I1
F61.59023387623389
sI3
F17.405840834154112
sI9
F5.000195022060691
sI6
F-37.00442945358954
sI7
F11.40879360052389
ssS'B00B0B0AA'
p127
(dp128
I2
F-42.649157865666645
sI3
F-83.80547348890104
sI5
F32.630378343902734
sI7
F99.99999999999997
ssS'A0A0AB0BB'
p129
(dp130
I2
F99.99999999999997
sI4
F-84.99310814484375
sI7
F97.18525023289344
ssS'0A0B000AB'
p131
(dp132
I1
F68.52095573561232
sI3
F3.2
sI5
I0
sI6
F0.8759275996273704
sI7
I0
ssS'B00BABAAB'
p133
(dp134
I2
F99.99999999999997
sI3
F99.99999999466003
ssS'ABB0B0A00'
p135
(dp136
I8
F69.20528653416591
sI9
F-88.42880483677327
sI4
F99.99999999999997
sI6
F-77.89099083876997
ssS'AA00BB0BA'
p137
(dp138
I3
F99.99999999963305
sI4
F72.83649883044133
sI7
F-42.70536885105889
ssS'0BABB00A0'
p139
(dp140
I1
F-78.75438850276284
sI7
F-48.86240743396641
sI6
F21.048397671900936
sI9
F-78.27300962902989
ssS'ABAAB0B0B'
p141
(dp142
I8
F-4.999999999999998
sI6
F-99.99994978318611
ssS'0ABA0A0BB'
p143
(dp144
I1
I0
sI5
I0
sI7
F59.01810436957935
ssS'BBAA00000'
p145
(dp146
I8
F30.452257521178144
sI9
F53.90876473584046
sI5
F67.59912766344969
sI6
F56.91127438672088
sI7
F37.574105176524384
ssS'BABA0ABAB'
p147
(dp148
I5
F20.0
ssS'0A0ABB0B0'
p149
(dp150
I7
F27.320714274450058
sI1
F79.97824771456807
sI3
F9.506043843758086
sI9
F-4.200912548000225
ssS'BA0BB0A0A'
p151
(dp152
I8
F99.97923081256586
sI3
F-30.561298023973674
sI6
F79.99999999337514
ssS'00B00ABA0'
p153
(dp154
I1
F3.3229384330367067
sI2
F-20.0
sI4
I0
sI5
F49.199669753816686
sI9
F2.3745794416658192
ssS'BAA00AB0B'
p155
(dp156
I8
F-79.02848
sI4
F-83.222784
sI5
F-83.222784
ssS'AB000B000'
p157
(dp158
I3
F-48.35393407590438
sI4
F-19.347468005929
sI5
F-6.45418947198859
sI7
F61.008210689769854
sI8
F-7.0048566799028205
sI9
F-42.18487957826748
ssS'ABA0A0B0B'
p159
(dp160
I8
F-3.999999999999998
sI4
F-73.28868587852575
sI6
F-82.86781852664531
ssS'A00B0AB00'
p161
(dp162
I8
F15.74581260694469
sI9
F76.63124691775734
sI2
F45.897402691444675
sI3
F41.06712017903233
sI5
F9.986463473667499
ssS'0B000BAAB'
p163
(dp164
I1
F-74.69721973469461
sI3
F-56.50222911165863
sI4
F-90.58401853707718
sI5
F-80.74714624811581
ssS'AA00BBB00'
p165
(dp166
I8
F-52.98515780382493
sI9
F-79.51382601644539
sI3
F99.99999999999997
sI4
F-18.448448853769055
ssS'B00000A00'
p167
(dp168
I2
F-8.406341866245796
sI3
F14.727112044094625
sI4
F-14.102103915249433
sI5
F-4.822885918252027
sI6
F2.2376424432776183
sI8
F23.642498201670765
sI9
F63.99709743574359
ssS'ABABA0B00'
p169
(dp170
I8
F5.744064478001089
sI9
F99.99999999999997
sI6
F32.774585558879174
ssS'00AB0BA00'
p171
(dp172
I8
F11.225993170349941
sI1
F11.825739852006109
sI2
F13.77829659805861
sI5
F99.99999999999997
sI9
F-11.827349804601354
ssS'AB0A000BB'
p173
(dp174
I3
F-17.587535773135862
sI5
F57.19486901264977
sI6
F-64.75625963832559
sI7
F99.99999999999997
ssS'AABABB0B0'
p175
(dp176
I9
F-99.99776992548014
sI7
F99.99999999999997
ssS'0ABA00B0B'
p177
(dp178
I8
F-83.222784
sI1
F-83.222784
sI5
F-71.56801426896752
sI6
F-73.05102310219084
ssS'0ABBBA0BA'
p179
(dp180
I1
F-99.99999999999997
sI7
F-4.999999999999998
ssS'AA00BB00B'
p181
(dp182
I8
F-26.203472909611627
sI3
F99.99999999999997
sI4
F-13.450430923789433
sI7
F-25.563845585960475
ssS'0ABABB00A'
p183
(dp184
I8
F-86.57909832285932
sI1
F-40.60800642775218
sI7
F79.99999823313676
ssS'B00BA0AB0'
p185
(dp186
I9
F-18.275923822071398
sI2
F31.123422596576482
sI3
F99.99999999999997
sI6
F-5.114094311534069
ssS'AA0BBAB00'
p187
(dp188
I8
F-12.81584563250285
sI9
F39.038983912262594
sI3
F99.99149294082697
ssS'ABBBAB0A0'
p189
(dp190
I9
F99.99999999999997
sI7
F-99.99999999999963
ssS'B0AA0B000'
p191
(dp192
I8
F-0.7735349411642582
sI9
F1.8899402085536845
sI2
F-0.5471422568516761
sI5
F11.831400755241482
sI7
F-3.9711581480270146
ssS'00AA0BB0B'
p193
(dp194
I8
F-4.187746046976849
sI1
F-86.01806208032548
sI2
F-82.31889391422753
sI5
F-91.74883447689406
ssS'0A0000BAB'
p195
(dp196
I1
F28.23704969320928
sI3
F37.529783073093796
sI4
F9.4464
sI5
I0
sI6
I0
ssS'0BAB0AAB0'
p197
(dp198
I1
F-31.002879999999998
sI5
F99.99776992548014
sI9
F20.0
ssS'A0AB0BB0A'
p199
(dp200
I8
F9.814584610328385
sI2
F99.99999999999997
sI5
F99.07766279631453
ssS'BAA000BAB'
p201
(dp202
I4
F24.651420293245167
sI5
F94.50244186112
sI6
F-36.0
ssS'0A0BB0BA0'
p203
(dp204
I1
F-98.68391628346669
sI3
F-97.98777699459632
sI6
F-99.34100889599802
sI9
F-98.84707849539316
ssS'B0AAAB00B'
p205
(dp206
I8
F79.9976424867559
sI2
F79.9999999987183
sI7
F99.99999999999997
ssS'0A0BBABA0'
p207
(dp208
I1
F-54.114485226848785
sI3
F-40.61814120480183
sI9
F-48.8
ssS'ABBB0AA0B'
p209
(dp210
I8
F-4.999999999999998
sI5
F-4.999999999999998
ssS'0AABABB0B'
p211
(dp212
I8
F99.99999886921788
sI1
F99.99999999999997
ssS'A0BBBAA0B'
p213
(dp214
I8
F-4.999999999999998
sI2
F-4.999999999999998
ssS'000BABAB0'
p215
(dp216
I1
F47.568573352360985
sI2
F-4.778704933192253
sI3
F99.99999999999997
sI9
F79.42444409718188
ssS'A00B000AB'
p217
(dp218
I2
F53.470738117347786
sI3
F18.560210389017037
sI5
F26.831692505863806
sI6
F17.105777501475398
sI7
I0
ssS'0B0BA0000'
p219
(dp220
I1
F-11.696593857984798
sI3
F11.277760681334604
sI6
F-58.292572062128755
sI7
F-21.89624706766129
sI8
F-58.867146245669346
sI9
F-63.164181961170414
ssS'BA00B0AB0'
p221
(dp222
I9
F-4.126635457345477
sI3
F-95.77287980906496
sI4
F-88.18798283583185
sI6
F-80.39723982051494
ssS'BAAB000BA'
p223
(dp224
I5
F-57.72928
sI6
F99.99999858652235
sI7
F47.23199971404003
ssS'0BB0ABA0A'
p225
(dp226
I8
F94.50244186112
sI1
F99.99999999999997
sI4
F-32.10178933318744
ssS'BBABBAAA0'
p227
(dp228
I9
F99.99999962946532
ssS'AB00BBA0A'
p229
(dp230
I8
F79.02848
sI3
F-89.26258176
sI4
F99.9999742889913
ssS'0AAB0A0BB'
p231
(dp232
I1
F98.1985601490518
sI5
F-59.04
sI7
F15.99999999833126
ssS'BBAB000AA'
p233
(dp234
I5
F-20.004154279271983
sI6
F99.99987740035672
sI7
F73.7856
ssS'AABBBA000'
p235
(dp236
I8
F-36.0
sI9
F-67.232
sI7
F-3.9999168157490854
ssS'ABABBA0AB'
p237
(dp238
I7
F-4.999999999999998
ssS'B0AB0A000'
p239
(dp240
I8
F-27.6252073812484
sI9
F99.99999999999997
sI2
F26.419528955148586
sI5
F-11.36228502215069
sI7
F65.06199653246017
ssS'B00000A0B'
p241
(dp242
I2
F-39.77098337956676
sI3
F-82.69741705645639
sI4
F-78.37615894192997
sI5
F-60.82260149114157
sI6
F-69.05824504530489
sI8
F-78.40073647824583
ssS'B0ABA000B'
p243
(dp244
I8
F-45.69355442712159
sI2
F-15.129001293689058
sI6
F-19.718206700239904
sI7
F99.99999999999997
ssS'ABAB0A0BB'
p245
(dp246
I5
F-99.9999742889913
sI7
F-99.99995982654889
ssS'0ABB0A0BA'
p247
(dp248
I1
F2.891689102629257
sI5
F-0.7998936617603372
sI7
F-0.7999999999999998
ssS'AB000AABB'
p249
(dp250
I3
F-16.25728000062021
sI4
F67.232
sI5
F79.99977396365213
ssS'0BAB00ABA'
p251
(dp252
I1
F-41.05690651145709
sI5
F99.99999999997479
sI6
F86.5782272
ssS'0AB0BA00B'
p253
(dp254
I8
F-97.07759106741699
sI1
F-86.62714760092351
sI4
F-99.9879273174852
sI7
F-92.52959385200182
ssS'BAA00ABB0'
p255
(dp256
I9
F96.4815627911168
sI4
F-13.753599999999999
sI5
F-59.04
ssS'ABA0A0BB0'
p257
(dp258
I9
F99.99999999999976
sI4
F-54.94935313512502
sI6
F-39.5413497315349
ssS'000A0BBAB'
p259
(dp260
I1
F-30.668881094555474
sI2
F-36.144354360999564
sI3
F-14.563648498229547
sI5
F-53.82346317269158
ssS'A0BB0AB0A'
p261
(dp262
I8
F-4.28719528815104
sI2
F10.845092695703404
sI5
F99.99996786123911
ssS'BA0BB0A00'
p263
(dp264
I8
F-99.40224053160861
sI9
F-99.36579243620695
sI3
F-99.93805482779187
sI6
F-99.77685156147655
ssS'AA0BBA00B'
p265
(dp266
I8
F8.505102970211782
sI3
F99.99776992548014
sI7
F16.873940837928256
ssS'BBAAA000B'
p267
(dp268
I8
F68.44119032627522
sI6
F99.99999999990379
sI7
F96.4815627911168
ssS'A00B0AB0B'
p269
(dp270
I8
F-22.412372942873873
sI2
F-96.4334244773875
sI3
F-94.88213461567986
sI5
F-96.75978740749045
ssS'0AB0BAAB0'
p271
(dp272
I1
F-2.7142368464793756
sI4
F9.500674956073151
sI9
F-3.570503270399999
ssS'ABA00A0BB'
p273
(dp274
I4
F-86.5782272
sI5
F-66.9591512647723
sI7
F-49.87015501221386
ssS'000BBAA0B'
p275
(dp276
I8
F-90.36721403747512
sI1
F-18.713274393268943
sI2
F-91.85699062058636
sI3
F-95.43550363820187
ssS'0ABBA0BBA'
p277
(dp278
I1
F99.99999999999997
sI6
F-99.99999999999997
ssS'000BA0BAB'
p279
(dp280
I1
F-2.788868220130326
sI2
F99.99999999999997
sI3
F-68.440734334324
sI6
F-84.98440396712519
ssS'B000BA0A0'
p281
(dp282
I9
F62.143452614574656
sI2
F-48.8
sI3
F-56.879827777478376
sI4
F-60.35072
sI7
F-3.6865826877046644
ssS'ABA00AB0B'
p283
(dp284
I8
F-3.999998348427625
sI4
F-76.99210388478113
sI5
F-64.41569817943966
ssS'ABABAA0BB'
p285
(dp286
I7
F99.99999999999997
ssS'B0B0A0000'
p287
(dp288
I2
F5.381712605251536
sI4
F-72.80016560658493
sI6
F-76.33606168577712
sI7
F-79.24435298640257
sI8
F-97.92158766919724
sI9
F-99.01405939234357
ssS'0AABB0BBA'
p289
(dp290
I1
F99.99999999999997
sI6
F99.99999999332503
ssS'AA000BB00'
p291
(dp292
I8
F61.10197236879881
sI9
F49.59425367083337
sI3
F99.99999999999997
sI4
F-0.08300247795414961
sI5
F40.8077912326777
ssS'0A0BABB00'
p293
(dp294
I8
F99.99999999999997
sI1
F79.99999193929689
sI3
F-50.300345883126305
sI9
F-30.708843411216716
ssS'BBA00ABAB'
p295
(dp296
I4
F-99.99999976285781
sI5
F-99.99999970357226
ssS'A0BBA000B'
p297
(dp298
I8
F-85.71914332209232
sI2
F-99.07617418337743
sI6
F-10.415489156075406
sI7
F-98.93072026324324
ssS'00BBA0000'
p299
(dp300
I1
F-20.643265924832846
sI2
F-25.439634489195594
sI6
F-43.967126637591896
sI7
F-31.474202096132935
sI8
F10.759031438998193
sI9
F-58.84352140014265
ssS'AABBAAB0B'
p301
(dp302
I8
F99.99999999999997
ssS'BABBAA000'
p303
(dp304
I8
F99.99999999999997
sI9
F-87.5794724242497
sI7
F8.21883076665467
ssS'0BA0B0B0A'
p305
(dp306
I8
F7.779621361376958
sI1
F-90.09887071354716
sI4
F-83.42647634887949
sI6
F99.99999999999997
ssS'0BABBAAAB'
p307
(dp308
I1
F-4.999999999964165
ssS'A0BB0AA0B'
p309
(dp310
I8
F-3.9989988362223774
sI2
F-3.9990703252575424
sI5
F-3.9989200654194166
ssS'00AB00AB0'
p311
(dp312
I1
F48.7467741104076
sI2
F61.163019460239475
sI5
F99.99999999999997
sI6
F72.2111786706926
sI9
F74.77651116581208
ssS'0ABBBA000'
p313
(dp314
I8
F-78.17018157210147
sI1
F-60.53273729538811
sI7
F-5.229450586755226
sI9
F-65.871958238728
ssS'A0BB0000A'
p315
(dp316
I8
F38.86159956515098
sI2
F73.04830893640477
sI5
F99.99999999999997
sI6
F48.14013542898792
sI7
F71.39285363184047
ssS'AA00B00B0'
p317
(dp318
I9
F27.30682353982297
sI3
F99.99999999999997
sI4
F73.57656575699721
sI6
F19.003432315423844
sI7
F69.00461975681388
ssS'AAB0BAABB'
p319
(dp320
I4
F99.99999999999997
ssS'A0B000BA0'
p321
(dp322
I9
F-7.384467440737096
sI2
F-38.34902061193969
sI4
F-37.46363813264617
sI5
F78.74330973268056
sI6
F-10.564701650466494
ssS'AB0B00BA0'
p323
(dp324
I9
F-28.246179379479937
sI3
F-19.688298368539915
sI5
F3.83529658031851
sI6
F-13.91617480176742
ssS'BABAABB0A'
p325
(dp326
I8
F99.99999999999997
ssS'AB0BAAB00'
p327
(dp328
I8
F-3.1710342462113315
sI9
F99.99999999466003
sI3
F18.790844012785268
ssS'AABB00B00'
p329
(dp330
I8
F-26.88249885442526
sI9
F4.2633213981930815
sI5
F71.4057300674289
sI6
F-84.73660239932529
ssS'AA0BBA0B0'
p331
(dp332
I9
F12.532160963216517
sI3
F99.99999823315294
sI7
F14.943999646630592
ssS'000ABB0BA'
p333
(dp334
I1
F-89.25701208876383
sI2
F-22.92176439031553
sI3
F-47.72925958466627
sI7
F-86.93973212960404
ssS'BABA0A00B'
p335
(dp336
I8
F3.2
sI5
F93.12805232640001
sI7
I0
ssS'A000BB0AB'
p337
(dp338
I2
F-81.13039455517318
sI3
F-76.1785184101602
sI4
F-78.02451173017732
sI7
F-75.76277509857331
ssS'ABAA0B0BB'
p339
(dp340
I5
F-99.69776854509635
sI7
F99.99999999999963
ssS'AABB00B0A'
p341
(dp342
I8
F-24.701598677073072
sI5
F99.99962585558085
sI6
F20.487117174847548
ssS'ABAB0AABB'
p343
(dp344
I5
F99.99999999999997
ssS'BAB000B0A'
p345
(dp346
I8
F-98.89639391734924
sI4
F-97.18603149055973
sI5
F-98.86500361930365
sI6
F-98.8637381816748
ssS'B0A0A0BBA'
p347
(dp348
I2
F-80.26410568266472
sI4
F17.96219960955497
sI6
F99.99999999999997
ssS'0BA0AA0BB'
p349
(dp350
I1
F-84.45055068693098
sI4
F99.99999999999997
sI7
F97.74820018631475
ssS'00ABAB0BA'
p351
(dp352
I1
F99.99999999999997
sI2
F79.84523225403196
sI7
F99.9594351807927
ssS'ABAA0B0B0'
p353
(dp354
I9
F-30.240000000854398
sI5
F79.99965070923498
sI7
F48.8
ssS'BB0A000BA'
p355
(dp356
I3
F-68.90830691789336
sI5
F-66.26891407019066
sI6
F-64.28310835963083
sI7
F-76.99985326047818
ssS'A000BB0A0'
p357
(dp358
I9
F-97.69869122288203
sI2
F-99.14670360339679
sI3
F-76.83965367687412
sI4
F-17.695824770302714
sI7
F-25.63554050539492
ssS'A0BB00000'
p359
(dp360
I2
F-58.38549341423538
sI5
F-26.115368800172767
sI6
F-10.296032888956303
sI7
F-54.76966353262648
sI8
F-74.69216252054305
sI9
F-56.35774644002298
ssS'AA00B00BB'
p361
(dp362
I3
F99.99999999999997
sI4
F-64.68847401275417
sI6
F-57.66211921421493
sI7
F73.11871735570254
ssS'0B0BAABBA'
p363
(dp364
I1
F99.99999999999997
sI3
F99.9999999916563
ssS'00A000BAB'
p365
(dp366
I1
F21.35453407861042
sI2
F71.82088506488641
sI4
F12.795445353055172
sI5
F23.921969357561025
sI6
F-11.440700285301844
ssS'B00B0000A'
p367
(dp368
I2
F-49.81165643897076
sI3
F-26.091710743917634
sI5
F-56.115463674095615
sI6
F-32.977693979533214
sI7
F44.07792878726853
sI8
F15.532477875744863
ssS'BAAAABBB0'
p369
(dp370
I9
F-4.999999999999998
ssS'A0AB0B0B0'
p371
(dp372
I9
F-8.473367874031869
sI2
F99.99999999999997
sI5
F79.99999999198629
sI7
F-0.3900573437071806
ssS'B0BAA0AB0'
p373
(dp374
I9
F-86.76876986629648
sI2
F32.76849469313518
sI6
F99.99999999999997
ssS'AABB0AABB'
p375
(dp376
I5
F-4.999999999999865
ssS'BAABA00BB'
p377
(dp378
I6
F-99.99997943119304
sI7
F99.99999999999997
ssS'BAAAAB0BB'
p379
(dp380
I7
F99.99999999999997
ssS'00BA00B00'
p381
(dp382
I1
F-32.27234676340918
sI2
F-53.87877355945271
sI5
F-28.80175774233486
sI6
F-31.078304658641546
sI8
F-34.555787623245735
sI9
F-23.59267250679421
ssS'BAA00BAB0'
p383
(dp384
I9
F-2.3615999999998705
sI4
F15.18355319370766
sI5
F99.07766279631453
ssS'0A0000B0B'
p385
(dp386
I1
F-99.19463783594229
sI3
F-96.02076276552798
sI4
F-90.51424734425325
sI5
F-94.83552598634722
sI6
F-88.92748383160544
sI8
F-8.034433762487314
ssS'BBA00ABA0'
p387
(dp388
I9
F99.93661746998859
sI4
F42.92308079414123
sI5
F-25.760005923816408
ssS'BABBAA00B'
p389
(dp390
I8
F99.99999999999997
sI7
F-4.999999999999998
ssS'BAAABABB0'
p391
(dp392
I9
F99.99455548212926
ssS'000BBAABA'
p393
(dp394
I1
F-48.4854530898125
sI2
F35.13806034636798
sI3
F99.99999779144117
ssS'BB0000A00'
p395
(dp396
I3
F-47.70734833873708
sI4
F-99.26664568750466
sI5
F-75.57809553500998
sI6
F-85.20195618268855
sI8
F-80.19338046888777
sI9
F-81.55359142941813
ssS'BAB000BAA'
p397
(dp398
I4
F9.540062676910381
sI5
F99.99962585558085
sI6
F-67.232
ssS'00BB0A0A0'
p399
(dp400
I1
F1.1270150789726052
sI2
F2.1316184061861017
sI7
F6.487854674694589
sI5
F2.866952261223701
sI9
I0
ssS'A0B0000B0'
p401
(dp402
I2
F-16.8941242553245
sI4
F-20.863804257072974
sI5
F-20.40519750158255
sI6
F-29.73307336236732
sI7
F-4.015320307526915
sI9
F-43.187676446419225
ssS'00AB0BB0A'
p403
(dp404
I8
F-95.73922734323034
sI1
F-90.07290312940438
sI2
F-89.19450870773323
sI5
F-87.1135064292658
ssS'A0BB0AAB0'
p405
(dp406
I9
F1.3124579703891857
sI2
F-3.419148257964426
sI5
F1.324359440988245
ssS'BA0BBAA00'
p407
(dp408
I8
F-73.84031086897835
sI9
F79.99999999926655
sI3
F-77.1410432
ssS'BAAA00BB0'
p409
(dp410
I9
F47.216729003339864
sI5
F-17.52478368041549
sI6
F-0.18446744073709098
ssS'B0BBA0A00'
p411
(dp412
I8
F-65.75370728045604
sI9
F-58.65087610491805
sI2
F3.1231194130343547
sI6
F-93.3512163694554
ssS'0BB0A00AB'
p413
(dp414
I1
F-84.23636403465412
sI4
F-98.24954703778857
sI6
F-98.65686531812433
sI7
F-99.15686652446973
ssS'0AB00ABB0'
p415
(dp416
I1
F-87.05387153103528
sI4
F-84.39473202759966
sI5
F-85.50376198112204
sI9
F-86.60831567074598
ssS'BABAAB000'
p417
(dp418
I8
F99.99999999999997
sI9
F34.583977856030415
sI7
F-83.31044154107653
ssS'000AABBBA'
p419
(dp420
I1
F99.99999999999997
sI2
F15.5251306267782
sI3
F20.406714928369578
ssS'A000000B0'
p421
(dp422
I2
F9.629390186439243
sI3
F-10.138676215415803
sI4
F-18.54247549371963
sI5
F39.231651100028536
sI6
F3.808811863538647
sI7
F48.23173584059898
sI9
F7.793047585173165
ssS'A00B0BA0B'
p423
(dp424
I8
F-95.2183814104612
sI2
F-97.43124606276713
sI3
F-96.84356994097858
sI5
F-89.67699794794336
ssS'ABAA0BB00'
p425
(dp426
I8
F-3.880471141218951
sI9
F-1.9644668059260186
sI5
F-1.8047328898869845
ssS'0ABBAB000'
p427
(dp428
I8
F99.99999999999997
sI1
F-83.71892990636681
sI7
F-79.01350813862616
sI9
F77.18045855834451
ssS'0A0000BB0'
p429
(dp430
I1
F-92.99568788027543
sI3
F-61.81144555408399
sI4
F-75.48682749217681
sI5
F-93.80741644543335
sI6
F-42.92083632826347
sI9
F-2.949465148365575
ssS'ABBBAA0AB'
p431
(dp432
I7
F-4.999999999999998
ssS'0BAA0BBAB'
p433
(dp434
I1
F-4.999999999999931
sI5
F-4.999999999999913
ssS'ABB00B0A0'
p435
(dp436
I9
F41.46487561865911
sI4
F-85.75763747103822
sI5
F15.840331278699903
sI7
F-14.763657011779369
ssS'ABA0BBAAB'
p437
(dp438
I4
F99.99999999999997
ssS'B00BAB0AA'
p439
(dp440
I2
F99.99999999999997
sI3
F-42.14649324551948
sI7
F94.50244186112
ssS'0B0000BA0'
p441
(dp442
I1
F-27.809536380000687
sI3
F-12.867177309103845
sI4
F-60.05079720302158
sI5
F-58.75169793846812
sI6
F-57.658370278804355
sI9
F-40.75473186607082
ssS'AABABA0BB'
p443
(dp444
I7
F99.9985727523073
ssS'00A0B0B0A'
p445
(dp446
I8
F9.729005470991105
sI1
F69.16132008003764
sI2
F78.45433664835787
sI4
F18.87235959357433
sI6
F99.99999999999997
ssS'ABB0A0AB0'
p447
(dp448
I9
F97.18525023289344
sI4
F99.99999999999997
sI6
F78.84698682323649
ssS'A00A0B00B'
p449
(dp450
I8
F-20.449436149667623
sI2
F0.14449497806559464
sI3
F79.86398279302533
sI5
F-4.629158834717892
sI7
F59.04
ssS'BA0A0A0BB'
p451
(dp452
I3
I0
sI5
I0
sI7
F-0.0026584559915683315
ssS'00BA000B0'
p453
(dp454
I1
F-22.729294390488526
sI2
F-17.01642118506068
sI5
F-23.285844952904718
sI6
F-24.042558059325117
sI7
F-21.8068164298084
sI9
F-17.40020513887295
ssS'B0000BAAB'
p455
(dp456
I2
F-97.73677179760949
sI3
F-56.269584951903155
sI4
F-99.52045603174409
sI5
F-98.12808388199781
ssS'0BA0BA00B'
p457
(dp458
I8
F-66.28714189318802
sI1
F-83.10724623725119
sI4
F-87.0452508695328
sI7
F-94.09266699040884
ssS'ABBBA0BA0'
p459
(dp460
I9
F99.99999999999997
sI6
F-4.999999999999998
ssS'AB0B0A000'
p461
(dp462
I8
F-0.29513847315493347
sI9
F50.9972513806145
sI3
F17.415716167940992
sI5
F28.000079917127103
sI7
I0
ssS'BB0BA0ABA'
p463
(dp464
I3
F99.99999999999997
sI6
F-99.99999999999997
ssS'B0B0BAAA0'
p465
(dp466
I9
F99.99970068446467
sI2
F-67.232
sI4
F-36.0
ssS'AB0AA0B0B'
p467
(dp468
I8
F3.8889361898826715
sI3
F-99.27581506943902
sI6
F99.99999999999997
ssS'AABB00BAB'
p469
(dp470
I5
F99.99999999999997
sI6
F-99.98670772004215
ssS'B0AAB0BA0'
p471
(dp472
I9
F13.456792763070794
sI2
F-94.35076726111856
sI6
F-31.43592538642653
ssS'BAAB00000'
p473
(dp474
I8
F-62.853041766400004
sI9
F-48.45786859730493
sI5
F-69.56952172852934
sI6
F-67.04305011291513
sI7
F-50.13659397772923
ssS'B000BAAB0'
p475
(dp476
I9
F-97.56596831871133
sI2
F-71.79915447069767
sI3
F-97.36518919128216
sI4
F-97.0456667869957
ssS'0BAA0000B'
p477
(dp478
I8
F8.533494141351607
sI1
F12.877050046578692
sI5
F79.8406216296629
sI6
F35.20159803548631
sI7
F28.784037447366167
ssS'B0BABAAB0'
p479
(dp480
I9
F-99.98936617603371
sI2
F-99.98936617603371
ssS'ABABABBA0'
p481
(dp482
I9
F99.99999999999997
ssS'0AABBAB00'
p483
(dp484
I8
F-47.71031433489769
sI1
F99.99999987858321
sI9
F48.8
ssS'00BBAB00A'
p485
(dp486
I8
F79.99999999817341
sI1
F99.99999999999997
sI2
F60.453929175847705
sI7
F65.02385636241462
ssS'00BA0A0BB'
p487
(dp488
I1
F11.891267484664006
sI2
F-18.60237056379267
sI5
F99.99999999999997
sI7
F79.63027961099888
ssS'BBAAA0BBA'
p489
(dp490
I6
F99.99999999999997
ssS'00A00BB00'
p491
(dp492
I1
F23.56434527745127
sI2
F-39.07650462318233
sI4
F-14.757301733914142
sI5
F-26.986559015006222
sI8
F-22.635738009107694
sI9
F-41.3134348510519
ssS'0BB00AAB0'
p493
(dp494
I1
F-71.32692227475181
sI4
F-67.03272671241044
sI5
F-70.79372289482397
sI9
F-76.46711887053232
ssS'A0ABB00B0'
p495
(dp496
I9
F-40.95825070468841
sI2
F99.99999999999997
sI6
F-23.784595896326426
sI7
F-91.42544185590675
ssS'BAA000B00'
p497
(dp498
I8
F-53.51838554760478
sI9
F-51.48078070583178
sI4
F-49.77665420021377
sI5
F-59.769028526109636
sI6
F-59.5871584256
ssS'AABBAB0B0'
p499
(dp500
I9
F99.99999999999997
sI7
F-99.9999215362283
ssS'ABA0B0B00'
p501
(dp502
I8
F-4.9687130933757775
sI9
F-69.94806974948236
sI4
F-66.39162790485486
sI6
F-60.63350530166888
ssS'BB0AA000B'
p503
(dp504
I8
F-82.94066514058247
sI3
F66.92475228095019
sI6
F99.99999999999997
sI7
F-56.85606396099003
ssS'BBAB0A0AB'
p505
(dp506
I5
F-99.96754814463415
sI7
F-99.9594351807927
ssS'BA000BB0A'
p507
(dp508
I8
F-35.06045947283442
sI3
F-25.529191396533008
sI4
F-4.13984895281412
sI5
F-41.12298091868862
ssS'A0BAABB00'
p509
(dp510
I8
F-88.71475535770011
sI9
F99.99999999999997
sI2
F-82.43254349490759
ssS'B0B0A00AB'
p511
(dp512
I2
F99.99999999999997
sI4
F-88.90547553449127
sI6
F-70.0552659910523
sI7
F-92.57966698631876
ssS'BB0ABBA0A'
p513
(dp514
I8
F99.99999999999997
sI3
F-99.99999999999997
ssS'AABBA0ABB'
p515
(dp516
I6
F-4.999999999999998
ssS'A0000BA0B'
p517
(dp518
I8
F-37.623539724096474
sI2
F-24.6901706081035
sI3
F67.46386027389876
sI4
F99.99999999999997
sI5
F-5.233493359979828
ssS'BBAAA0B0B'
p519
(dp520
I8
F-4.999999999999998
sI6
F99.99999999999997
ssS'000B0BABA'
p521
(dp522
I1
F-15.552308400372311
sI2
F-17.954907899717064
sI3
F34.58241234070782
sI5
F63.043987618103486
ssS'0B0BB00AA'
p523
(dp524
I1
F-71.10244135139638
sI3
F-72.24259311179739
sI6
F72.83987560081803
sI7
F99.99999999999997
ssS'0A0B0BAB0'
p525
(dp526
I1
F-47.77173435804101
sI3
F-66.17319590164499
sI5
F-5.13475859327497
sI9
F-70.41280446801116
ssS'BAAA0BABB'
p527
(dp528
I5
F99.9999215362283
ssS'00AABBABB'
p529
(dp530
I1
F99.99999999999997
sI2
F-99.99998683596354
ssS'000ABBAB0'
p531
(dp532
I1
F99.99999999999997
sI2
F31.566190490226397
sI3
F-82.84135395701762
sI9
F-81.26920596808331
ssS'00BA000BA'
p533
(dp534
I1
F15.965223372624848
sI2
F4.061305764888927
sI5
F44.50930253492804
sI6
F-19.16840406731633
sI7
F7.5804329581261065
ssS'0BA0BBAA0'
p535
(dp536
I1
F-77.39895043400853
sI4
F79.99999989853754
sI9
F99.99149294082697
ssS'B0AAB00BA'
p537
(dp538
I2
F14.449346829451903
sI6
F99.99999999981212
sI7
F-26.06911687408011
ssS'B0B0A00A0'
p539
(dp540
I9
F23.221032143002013
sI2
F99.99999999999997
sI4
F-68.29814631394892
sI6
F-87.48477453710132
sI7
F-64.38708224
ssS'A00B00BAB'
p541
(dp542
I2
F8.457042610333371
sI3
F7.300111611300176
sI5
F8.343976617672979
sI6
F-4.133041607630611
ssS'00AAB0B00'
p543
(dp544
I8
F-7.062874360548671
sI1
F-8.830483490788954
sI2
F-18.968585726246495
sI6
F-24.38340236669576
sI9
F8.35915147945564
ssS'0ABBA0A0B'
p545
(dp546
I8
F99.99976054757174
sI1
F-47.546623791264224
sI6
F20.382715350764155
ssS'000ABB000'
p547
(dp548
I1
F-24.688069125858036
sI2
F-34.59966536958055
sI3
F-11.788366944805029
sI7
F-22.117133273325056
sI8
F-50.322034296860245
sI9
F-27.201332875294405
ssS'0ABBAB00A'
p549
(dp550
I8
F89.26258176
sI1
F99.99999999970643
sI7
F71.31755357290037
ssS'BAB0B000A'
p551
(dp552
I8
F-49.38303825795199
sI4
F-58.98660540914241
sI6
F-80.885100520326
sI7
F16.572478931016107
ssS'0A0BB00A0'
p553
(dp554
I1
F-79.98676734675084
sI3
F-72.01056150728752
sI9
F-81.17757078080658
sI6
F-53.44444953573623
sI7
F-87.35132131328001
ssS'ABABA0BB0'
p555
(dp556
I9
F99.99999999999997
sI6
F-99.99999999999997
ssS'BA0BBAAB0'
p557
(dp558
I9
F-4.999999999999998
sI3
F-99.99999999999997
ssS'0A0ABBB00'
p559
(dp560
I8
F-78.58166078683783
sI1
F-53.10302162563361
sI3
F-16.20274441831803
sI9
F-73.54972423063661
ssS'ABA0BAB00'
p561
(dp562
I8
F9.981725014284612
sI9
F99.99999999999943
sI4
F-31.88181428664774
ssS'0B0ABAA0B'
p563
(dp564
I8
F-20.0
sI1
F99.90096479685717
sI3
F-36.0
ssS'BB0A00B0A'
p565
(dp566
I8
F-18.960387801638188
sI3
F-2.479915928374094
sI5
F-2.3311011113564035
sI6
F-56.00914097973241
ssS'ABBABA0AB'
p567
(dp568
I7
F99.99995982654889
ssS'BA00BABBA'
p569
(dp570
I3
F99.99999999999997
sI4
F-99.99953231947606
ssS'AA00B0BB0'
p571
(dp572
I9
F-54.85128542773763
sI3
F99.99999999999997
sI4
F-83.63091990832308
sI6
F-88.78121275941128
ssS'BBA000BAA'
p573
(dp574
I4
F29.124807324955235
sI5
F-60.89543188841667
sI6
F99.99999999984969
ssS'0BAB0000A'
p575
(dp576
I8
F75.54763000356498
sI1
F49.957019516369535
sI5
F78.18348812642652
sI6
F99.99999999999997
sI7
F71.01159425987422
ssS'AB00A0BAB'
p577
(dp578
I3
F-3.999999999999998
sI4
F19.25081162347046
sI6
F-3.1944253910985294
ssS'A0ABB0A0B'
p579
(dp580
I8
F-99.44966712780014
sI2
F99.99999999999997
sI6
F-0.5730510835000432
ssS'0BABA00BA'
p581
(dp582
I1
F99.99999998696296
sI6
F83.222784
sI7
F98.55884811924145
ssS'BAB0B00A0'
p583
(dp584
I9
F-98.83290851194491
sI4
F-99.85056033379654
sI6
F-95.48023515673852
sI7
F-46.328660135520536
ssS'000BA000B'
p585
(dp586
I1
F-31.037148378662415
sI2
F39.10960130779611
sI3
F-54.345975016142624
sI6
F-38.61240234710996
sI7
F-27.51247330762103
sI8
F-24.88250289534856
ssS'AB00000B0'
p587
(dp588
I3
F-28.460585799239773
sI4
F-18.978129093171134
sI5
F34.57024034561057
sI6
F-33.99815340886001
sI7
F-18.026497943393466
sI9
F-62.247001909980455
ssS'A0BA0A0BB'
p589
(dp590
I2
F-20.56294995342131
sI5
F99.26213023705162
sI7
F59.04
ssS'00B0AB0BA'
p591
(dp592
I1
F99.99999999999997
sI2
F13.162558737734093
sI4
F3.0614272880376108
sI7
F-4.0762480783222035
ssS'00BB0000A'
p593
(dp594
I1
F-14.930976952711392
sI2
F-9.563395511621762
sI5
F-27.248530364881724
sI6
F-43.02825850036963
sI7
F-1.4053601570049912
sI8
F-10.103293406734924
ssS'ABAB00AB0'
p595
(dp596
I9
F-43.52911839583879
sI5
F99.99999999999997
sI6
F-2.2154450567576554
ssS'A00BB0AB0'
p597
(dp598
I9
F-99.2142740933115
sI2
F-90.84160682936914
sI3
F-92.81857816004678
sI6
F-91.24798633371307
ssS'0B0AA0BBA'
p599
(dp600
I1
F99.99998683596354
sI3
F47.231999750474486
sI6
F59.04
ssS'AAB00A0BB'
p601
(dp602
I4
F-46.0362253914008
sI5
F-14.594623849043193
sI7
F20.18006074261549
ssS'B0ABB000A'
p603
(dp604
I8
F-89.93608984643686
sI2
F-93.6608830317364
sI6
F99.99999999999997
sI7
F-43.96149588318809
ssS'00A0BABAB'
p605
(dp606
I1
F-0.9112799766571988
sI2
F-42.685008168759026
sI4
F-79.43822064970414
ssS'A0AABBB00'
p607
(dp608
I8
F21.312500655972823
sI9
F21.795463491933596
sI2
F99.99999999999997
ssS'BAB0ABAB0'
p609
(dp610
I9
F-4.999999999999998
sI4
F-99.99999999999997
ssS'AB00AABB0'
p611
(dp612
I9
F99.98338465005268
sI3
F-20.000000030354197
sI4
F20.0
ssS'A0ABA0B0B'
p613
(dp614
I8
F5.030559424654118
sI2
F99.99999999999997
sI6
F-81.93764167461343
ssS'BAA0BB000'
p615
(dp616
I8
F-99.51321217728997
sI9
F-99.11745630076126
sI4
F-69.6784363630216
sI7
F-99.16724695914804
ssS'00BAA0BBA'
p617
(dp618
I1
F99.99999990286656
sI2
F55.02927919858015
sI6
F73.7856
ssS'B0A00A00B'
p619
(dp620
I8
F-62.25810276056373
sI2
F-90.41536751724263
sI4
F-76.82707154285232
sI5
F75.78898279520703
sI7
F-95.55258772840912
ssS'ABA00BA0B'
p621
(dp622
I8
F79.57000083495292
sI4
F99.99999999999997
sI5
F99.98936617603371
ssS'AABBAABB0'
p623
(dp624
I9
F99.99999999999997
ssS'AABB0BBA0'
p625
(dp626
I9
F-79.02848
sI5
F99.9985727523073
ssS'ABAA000BB'
p627
(dp628
I5
F4.9971148577982625
sI6
F-20.0
sI7
F99.84525749508933
ssS'0BBA00A0B'
p629
(dp630
I8
F-46.06119290833131
sI1
F99.99999999999997
sI5
F-94.24900123470678
sI6
F-6.23461927285415
ssS'A00BBA000'
p631
(dp632
I8
F10.6791387091866
sI9
F26.24994717371751
sI2
F23.291034485962893
sI3
F62.42709502506839
sI7
F-11.195042720113616
ssS'A0AAB00BB'
p633
(dp634
I2
F99.99999858652235
sI6
F-89.26258176
sI7
F94.50244186112
ssS'AA0ABBB00'
p635
(dp636
I8
F-16.233021557650034
sI9
F-33.381190132498176
sI3
F99.99999953683165
ssS'ABABBA00B'
p637
(dp638
I8
F-4.999999999999998
sI7
F-99.99999999999997
ssS'AABB0AB00'
p639
(dp640
I8
F-30.24007482888383
sI9
F-22.147483648
sI5
F79.99849119482359
ssS'000B00000'
p641
(dp642
I1
F-5.904831897620868
sI2
F-56.52091057621853
sI3
F-32.35265898519657
sI5
F-1.3876873275162218
sI6
F-18.831331160869595
sI7
F-15.259796176055712
sI8
F-41.75863754502407
sI9
F-46.225208697184655
ssS'ABA0BA00B'
p643
(dp644
I8
F-3.0399999999999987
sI4
F-97.81025595983957
sI7
F-95.1827521177317
ssS'B0BA0A000'
p645
(dp646
I8
I0
sI9
F5.033158180559195
sI2
F11.832257424712028
sI5
I0
sI7
F6.625407028416252
ssS'B00B0BA0A'
p647
(dp648
I8
F99.99999999999997
sI2
F-21.376148443954808
sI3
F2.213452539785827
sI5
F79.99135013763221
ssS'BA000AB00'
p649
(dp650
I8
F-60.35072
sI9
F-55.325698715653026
sI3
F-54.37428281490397
sI4
F-54.52596154014055
sI5
F-63.289057209457056
ssS'00BA0BABA'
p651
(dp652
I1
F99.99999942103956
sI2
F37.979121079572494
sI5
F46.151308819001656
ssS'00B0B00A0'
p653
(dp654
I1
F-99.68531101572596
sI2
F-88.03783530849299
sI4
F-99.9296594419702
sI6
F-99.59254537175437
sI7
F-44.76969381879171
sI9
F-61.889307179893905
ssS'A00B0A00B'
p655
(dp656
I8
F7.080677189638069
sI2
F7.703375398779173
sI3
F8.459460767633434
sI5
F4.400082591170059
sI7
F8.760510340053633
ssS'BABBA0000'
p657
(dp658
I8
F99.99999999999997
sI9
F-78.90390316565085
sI6
F-75.35748000533628
sI7
F0.7531962520018303
ssS'ABB000B0A'
p659
(dp660
I8
F48.449014590863726
sI4
F39.46371994836042
sI5
F99.99999999999997
sI6
F-33.51706718380681
ssS'B0A00AB00'
p661
(dp662
I8
F-4.687816269128902
sI9
F99.99999999999997
sI2
F-28.086540281765885
sI4
F67.79518727151967
sI5
F9.344088013232415
ssS'A000BB000'
p663
(dp664
I2
F-52.65782791597798
sI3
F-99.6955826879347
sI4
F-7.803243520306179
sI7
F-83.65317501589335
sI8
F-99.47820312938913
sI9
F-97.34422849625038
ssS'A0ABBAABB'
p665
(dp666
I2
F99.99999999999997
ssS'BABAAB0B0'
p667
(dp668
I9
F-4.999999999999998
sI7
F-99.99999999999997
ssS'B0A00B0AB'
p669
(dp670
I2
F-34.15801077255769
sI4
F-47.16453531455245
sI5
F68.1426675831029
sI7
F-28.053451914093934
ssS'A0ABB0B0A'
p671
(dp672
I8
F21.21014126484953
sI2
F99.99999999999997
sI6
F99.52776335171305
ssS'BAA000BB0'
p673
(dp674
I9
F-84.93067765908474
sI4
F-85.16873309064218
sI5
F-85.43278531502953
sI6
F-86.3721550951482
ssS'B000BAA00'
p675
(dp676
I8
F-47.2627936657408
sI9
F60.412802145705015
sI2
F-49.00844973747293
sI3
F-13.741498738412488
sI4
F-71.30047488
ssS'A0B0AA0BB'
p677
(dp678
I2
F-88.82459623478482
sI4
F99.99999999999997
sI7
F31.115161533046525
ssS'BA0ABBA00'
p679
(dp680
I8
F-13.39483594063865
sI9
F16.53746966617053
sI3
F-87.27728269407869
ssS'0AB0BBA0A'
p681
(dp682
I8
F99.98936617603371
sI1
F-18.502724470481205
sI4
F79.99999976051377
ssS'B0BA00A0B'
p683
(dp684
I8
F-94.50244186112
sI2
F-92.92384698932835
sI5
F-71.50021533118414
sI6
F-89.61351656533722
ssS'A0000B000'
p685
(dp686
I2
F15.433684114121254
sI3
F63.16300075767719
sI4
F2.930210583382623
sI5
F36.77642996782954
sI7
F26.06201206575457
sI8
F16.23964066683545
sI9
F12.3888862501231
ssS'00ABBABA0'
p687
(dp688
I1
F79.9999387139079
sI2
F-84.79103152218964
sI9
F36.0
ssS'BAA00BBBA'
p689
(dp690
I4
F-4.999999999999998
sI5
F-99.99149294082697
ssS'00A00BBA0'
p691
(dp692
I1
F13.07734615131755
sI2
F44.54711493409683
sI4
F5.285728980357616
sI5
F29.13422314631441
sI9
F-4.350147411947836
ssS'ABAB00BA0'
p693
(dp694
I9
F79.87620599607119
sI5
F22.239997893753895
sI6
F41.97946388920209
ssS'00BAB0A0B'
p695
(dp696
I8
F-44.88533542119577
sI1
F99.99999999999997
sI2
F-90.54307369292086
sI6
F-18.289409652471395
ssS'B000B00AA'
p697
(dp698
I2
F21.08722842761728
sI3
F74.26537332149111
sI4
F18.96042813770772
sI6
F79.12952178832852
sI7
F99.99999999999997
ssS'00ABABBAB'
p699
(dp700
I1
F-4.999999999999998
sI2
F99.99999999999997
ssS'ABA0BBA0B'
p701
(dp702
I8
F-99.99999999993842
sI4
F99.99999999999997
ssS'A0B0A00B0'
p703
(dp704
I9
F99.99999999999997
sI2
F-25.679912313841385
sI4
F73.27658159416256
sI6
F55.14996875497571
sI7
F79.12159974329403
ssS'ABBB0A0A0'
p705
(dp706
I9
F39.039999999961104
sI5
F13.515394750285363
sI7
F12.000000000162961
ssS'B00AA0BBA'
p707
(dp708
I2
F17.87023787838617
sI3
F13.235683508414589
sI6
F99.99999999999997
ssS'AA0B0A0BB'
p709
(dp710
I3
F97.74820018631475
sI5
F-48.8
sI7
F5.650183629526536
ssS'0AABA00BB'
p711
(dp712
I1
F99.99999568640854
sI6
F-80.6139873037259
sI7
F59.04
ssS'0BBABA00A'
p713
(dp714
I8
F-59.04
sI1
F-67.232
sI7
F-59.04
ssS'00ABB0A0B'
p715
(dp716
I8
F-96.58558121950031
sI1
F-98.26974019650326
sI2
F-97.9320310286937
sI6
F-98.37935170542553
ssS'0A0BAA0BB'
p717
(dp718
I1
F-95.3328832471686
sI3
F-48.877616664575456
sI7
F-3.0582541838232764
ssS'00BAA00BB'
p719
(dp720
I1
F-86.97665215857373
sI2
F-95.4102098896746
sI6
F99.99999999999997
sI7
F-31.3609277468154
ssS'ABA0A00BB'
p721
(dp722
I4
F65.93030639636905
sI6
F-3.412949648501698
sI7
F99.99999999999339
ssS'AB0BB000A'
p723
(dp724
I8
F-95.12166027659282
sI3
F-95.17536555695395
sI6
F-80.90133339859862
sI7
F-96.10250729624869
ssS'0B0B0A000'
p725
(dp726
I1
F-27.059621944026002
sI3
F-45.8508456648791
sI5
F-43.9552747572848
sI7
F5.3762342826119625
sI8
F-36.78556141253497
sI9
F-47.40785009247029
ssS'BAAA0BB00'
p727
(dp728
I8
F2.547750358239816
sI9
F-3.724169238127891
sI5
F2.727358586024512
ssS'AB0AA0BB0'
p729
(dp730
I9
F91.41006540800001
sI3
F-73.95770833773491
sI6
F99.99999999999997
ssS'BABA000B0'
p731
(dp732
I9
F-23.07348661357789
sI5
F0.12000559233926
sI6
F-63.901432868445674
sI7
F-45.13092529548763
ssS'000000AB0'
p733
(dp734
I1
F50.68381508928081
sI2
F14.340572869027307
sI3
F15.400117285165951
sI4
F35.49546259333013
sI5
F44.36117019916849
sI6
F14.848179647458984
sI9
F20.55284825573296
ssS'AA00BBBAB'
p735
(dp736
I3
F99.99999999999997
sI4
F-99.69776854509635
ssS'0BA0A00B0'
p737
(dp738
I1
F68.3705107541794
sI7
F99.99999999999997
sI4
F67.15702748192976
sI6
F76.07631250478376
sI9
F78.69668701661385
ssS'ABA0B0A0B'
p739
(dp740
I8
F5.471722061391354
sI4
F99.99999999999997
sI6
F-95.76593786296613
ssS'BAABAB0BA'
p741
(dp742
I7
F99.99999999999997
ssS'0B0A0BAB0'
p743
(dp744
I1
F99.99999999999997
sI3
F20.486775269981678
sI5
F79.55020037435014
sI9
F-38.524902940680136
ssS'0AA0BBBA0'
p745
(dp746
I1
F99.99962585558085
sI4
F5.64962993653418
sI9
F-21.475691262584682
ssS'A00BA00BB'
p747
(dp748
I2
F-94.76144061467639
sI3
F-83.88760973464525
sI6
F-94.0863624644028
sI7
F-5.041099416947952
ssS'0BABAABAB'
p749
(dp750
I1
F-3.999999999999999
ssS'AB0BBABAA'
p751
(dp752
I3
F99.99999999999997
ssS'ABABA0BAB'
p753
(dp754
I6
F-4.999999999999998
ssS'AB0000A0B'
p755
(dp756
I8
F74.88248588899238
sI3
F69.80502713777283
sI4
F99.99999999999997
sI5
F75.9391697090277
sI6
F59.47143936325208
ssS'BA0BABAB0'
p757
(dp758
I9
F-4.999999999999998
sI3
F99.99999999999997
ssS'0BBA0AA0B'
p759
(dp760
I8
F35.44995709635789
sI1
F99.99998354495443
sI5
F73.7856
ssS'0000AAB0B'
p761
(dp762
I8
F66.91899818211543
sI1
F-77.91718675097061
sI2
F-69.04673371980024
sI3
F-86.78272476761268
sI4
F99.99999999999997
ssS'AABB00AB0'
p763
(dp764
I9
F10.367859216297907
sI5
F1.6813564662932794
sI6
F-3.9763419416425263
ssS'AB0BBABA0'
p765
(dp766
I9
F-99.99999999999997
sI3
F-4.999999999999998
ssS'0AB0AB000'
p767
(dp768
I8
F99.99999999999997
sI1
F-67.4338985165704
sI7
F-85.82398072041858
sI4
F-89.49299096267762
sI9
F70.94839521352404
ssS'BAAAABB0B'
p769
(dp770
I8
F99.99999999999997
ssS'0AAB0BBA0'
p771
(dp772
I1
F99.92077183748573
sI5
I0
sI9
F-20.0
ssS'A0AB0BAB0'
p773
(dp774
I9
F-19.815050327536717
sI2
F99.99999999999997
sI5
F95.601953488896
ssS'AABB0B0A0'
p775
(dp776
I9
F13.852516352000002
sI5
F93.12805232640001
sI7
I0
ssS'0BA00A00B'
p777
(dp778
I8
F14.013368900285261
sI1
F-21.796577082330124
sI4
F-19.619998180103607
sI5
F58.97267484546254
sI7
F-43.60417626679952
ssS'BABABA000'
p779
(dp780
I8
F-67.232
sI9
F-59.19990784
sI7
F-66.08609642459405
ssS'A0B0ABB00'
p781
(dp782
I8
F-40.02630714441055
sI9
F99.99999999999997
sI2
F-43.877266942768216
sI4
F-59.954795079492335
ssS'000AAB0BB'
p783
(dp784
I1
F-94.84111943685528
sI2
F-94.91386219538406
sI3
F-93.66081942753547
sI7
F-94.43336450339095
ssS'A0AB00BBA'
p785
(dp786
I2
F99.99999999999339
sI5
F86.5782272
sI6
F96.4815627911168
ssS'AA000B00B'
p787
(dp788
I8
F54.784932723022436
sI3
F99.99999999999997
sI4
F54.406371563549904
sI5
F51.60763547542895
sI7
F9.310945156158603
ssS'ABA0BBB0A'
p789
(dp790
I8
F-99.99999999999997
sI4
F-99.99999999999997
ssS'A00BA00B0'
p791
(dp792
I9
F99.99999999999997
sI2
F67.3219613083237
sI3
F73.10723493959316
sI6
F39.48414711726276
sI7
F73.5517391285479
ssS'00BAA00B0'
p793
(dp794
I1
F64.60603229073571
sI2
F-10.980996452157568
sI7
F49.21802354798464
sI6
F99.99999999999997
sI9
F51.59991744699137
ssS'BAAA0BB0B'
p795
(dp796
I8
F-99.99998683596354
sI5
F-99.99998683596354
ssS'AABA0BB00'
p797
(dp798
I8
F-59.04
sI9
F-65.34456320000001
sI5
F-62.099937933942115
ssS'BA0BAB000'
p799
(dp800
I8
F99.99999999999997
sI9
F-81.91247021248992
sI3
F-44.04501490873315
sI7
F77.89307054232646
ssS'ABBA0AB00'
p801
(dp802
I8
I0
sI9
F-36.0
sI5
F86.5782272
ssS'0BBA00ABA'
p803
(dp804
I1
F99.99999568640854
sI5
F6.652260727928372
sI6
F-79.02848
ssS'0A00B0ABB'
p805
(dp806
I1
F79.24218003735048
sI3
F-62.695197826351816
sI4
F-73.07173744674444
sI6
F-81.56624278317784
ssS'BB000A0AB'
p807
(dp808
I3
F-76.7722418391901
sI4
F-83.08087025313304
sI5
F-50.468143372213355
sI7
F-73.67153230063272
ssS'00BBA00AB'
p809
(dp810
I1
F-65.13115816862029
sI2
F99.99999999999997
sI6
F3.5070948568915146
sI7
F-91.58519378901651
ssS'B0A00BBA0'
p811
(dp812
I9
F-65.42320639983703
sI2
F-40.71902017685912
sI4
F-29.61708406506184
sI5
F-38.84780382842665
ssS'0A00A00BB'
p813
(dp814
I1
F-92.20888306828513
sI3
F-91.83348190808671
sI4
F-73.08253472949522
sI6
F-57.81052900254073
sI7
F3.669663040491492
ssS'ABB00ABA0'
p815
(dp816
I9
I0
sI4
F-36.0
sI5
F47.2319999998208
ssS'B0AA000B0'
p817
(dp818
I9
F44.574388535379455
sI2
F-1.5564116594905597
sI5
F63.56838621413341
sI6
F34.08330707873197
sI7
F38.915813181040384
ssS'00AAAB0BB'
p819
(dp820
I1
F-64.44524325081105
sI2
F-79.02848
sI7
F99.99999999997479
ssS'BAABBAAB0'
p821
(dp822
I9
F99.99999999999997
ssS'A00B0A0B0'
p823
(dp824
I9
F21.728430937622093
sI2
F44.09324268441847
sI3
F66.2663008745011
sI5
F38.79687227996561
sI7
F6.0972209521772625
ssS'A00BB0BA0'
p825
(dp826
I9
F-99.92712173225065
sI2
F-99.98781634872635
sI3
F-86.20856516166768
sI6
F-97.85524510757497
ssS'0BA0B0BAA'
p827
(dp828
I1
F-1.8026470792479765
sI4
F2.4310972030655438
sI6
F99.99999999999997
ssS'BABA0ABB0'
p829
(dp830
I9
F-97.74820018631475
sI5
F99.99999858652235
ssS'000AABB00'
p831
(dp832
I8
F14.614889267949106
sI1
F-54.58441421129969
sI2
F0.7053820747567068
sI3
F-5.088042642033862
sI9
F6.741361339003482
ssS'A00ABBB0A'
p833
(dp834
I8
F-98.57427968702585
sI2
F-92.94792247465239
sI3
F-0.6824172506547104
ssS'B0ABB00A0'
p835
(dp836
I9
F-97.42973641667865
sI2
F-97.18525023289344
sI6
F-95.08854279166722
sI7
F-76.15329947357625
ssS'BA00BBABA'
p837
(dp838
I3
F-99.99999999999997
sI4
F-4.999999999999998
ssS'BABA0AB00'
p839
(dp840
I8
I0
sI9
F15.999906463895213
sI5
F73.7856
ssS'A00B0000B'
p841
(dp842
I2
F-47.70661455734426
sI3
F-2.661669031717557
sI5
F-23.276270239452458
sI6
F-14.147025571020095
sI7
F-64.00032122857404
sI8
F-37.36343373193263
ssS'B0ABBA0A0'
p843
(dp844
I9
F99.99941539934507
sI2
F-86.5782272
sI7
F-87.677738827776
ssS'A0B00AB00'
p845
(dp846
I8
F-23.7069457965141
sI9
F-12.442879999999999
sI2
F-13.472683917018504
sI4
F-15.22923410454741
sI5
F66.10810348305361
ssS'AABAB000B'
p847
(dp848
I8
F-48.8
sI6
F2.1914857071575113
sI7
F99.99926924918134
ssS'000BABA0B'
p849
(dp850
I8
F-51.892359799234185
sI1
F-12.926868243831187
sI2
F-35.31252065598085
sI3
F99.99999999999997
ssS'ABABB0BA0'
p851
(dp852
I9
F-99.99999999999997
sI6
F-4.999999999999998
ssS'BBAA0ABAB'
p853
(dp854
I5
F99.99999157501667
ssS'0BB00AA0B'
p855
(dp856
I8
F-76.77718021531096
sI1
F1.937038269116198
sI4
F-12.5771056691089
sI5
F-45.62311826204774
ssS'A00B000B0'
p857
(dp858
I2
F9.133528723993756
sI3
F21.633720349455324
sI5
F25.110996011163344
sI6
F12.1827455612063
sI7
F-31.843474290110787
sI9
F0.5267076048828869
ssS'A00BA0BAB'
p859
(dp860
I2
F99.99999999999997
sI3
F15.887335100939367
sI6
F13.904570197654486
ssS'AB0BBA0A0'
p861
(dp862
I9
F79.99999999999338
sI3
F21.980209677101644
sI7
F7.6316093022208
ssS'AB00AB000'
p863
(dp864
I8
F35.52445418742706
sI9
F99.99999999999997
sI3
F75.35560383893836
sI4
F77.27984028143388
sI7
F33.76279995661107
ssS'0BAB0A00B'
p865
(dp866
I8
F-67.13733886213424
sI1
F-65.42018232196615
sI5
F-66.85672461888076
sI7
F-64.79994855682764
ssS'AB00BB0AA'
p867
(dp868
I3
F-30.057687038785833
sI4
F21.959363701799177
sI7
F99.99999999981212
ssS'0BA00B0AB'
p869
(dp870
I1
F-11.918097772284124
sI4
F-15.081928853136377
sI5
F1.9729653049663685
sI7
F-27.04915401158194
ssS'0AB00B000'
p871
(dp872
I1
F-98.84198065275943
sI4
F-84.54299214072987
sI5
F-90.24260406306192
sI7
F-99.38349811978408
sI8
F-96.77639542446887
sI9
F-59.846574668515686
ssS'A00AB00B0'
p873
(dp874
I9
F-2.912196414077304
sI2
F52.89946956222515
sI3
F-29.641263587025765
sI6
F-43.579954151725914
sI7
F99.99999999999997
ssS'BBA0A00AB'
p875
(dp876
I4
F79.99710831916026
sI6
F79.99999999998714
sI7
F99.99999999999997
ssS'ABA0BABAB'
p877
(dp878
I4
F-3.999999999999999
ssS'0A0BAB00B'
p879
(dp880
I8
F99.99999999999997
sI1
F-26.03225629247116
sI3
F79.99999999652944
sI7
F22.538307112088063
ssS'00B0AB000'
p881
(dp882
I1
F-84.54211341751731
sI2
F-97.0660608317153
sI4
F-76.78909002106109
sI7
F-98.22468930861723
sI8
F-56.07111047970442
sI9
F17.46966921054144
ssS'BAABB0AB0'
p883
(dp884
I9
F-99.99999999999997
sI6
F-99.99999999999997
ssS'0AABB0A0B'
p885
(dp886
I8
F-89.26258176
sI1
F99.99908656147667
sI6
F-8.574389534719998
ssS'BAA0AB00B'
p887
(dp888
I8
F99.99999999999997
sI4
F79.99946660684402
sI7
F99.52776335171305
ssS'ABAABBBA0'
p889
(dp890
I9
F-4.999999999999998
ssS'A0BBAB000'
p891
(dp892
I8
F-0.9301893121687819
sI9
F99.99999999999997
sI2
F-42.79717576810415
sI7
F-45.64032914089778
ssS'00B0B00AA'
p893
(dp894
I1
F-23.274500988586063
sI2
F-34.4815450717633
sI4
F-30.40431827057327
sI6
F-76.07766542747036
sI7
F99.99999999999997
ssS'0000BBAAB'
p895
(dp896
I1
F-93.07956849116236
sI2
F-96.4815627911168
sI3
F-92.47420517121733
sI4
F-93.87006952138601
ssS'0B0ABA00B'
p897
(dp898
I8
F-70.89297671167584
sI1
F-65.8993717635397
sI3
F-84.807626932224
sI7
F-71.4495248178313
ssS'BAAABB000'
p899
(dp900
I8
F-41.933718757359905
sI9
F-3.999856472888002
sI7
F-59.04
ssS'0A0B00B00'
p901
(dp902
I1
F67.16785001093065
sI3
F-33.840886960170366
sI5
F-44.131854956156495
sI6
F-66.03102485001885
sI8
F-12.257916948523288
sI9
F-58.23003555136457
ssS'B0AB0AABB'
p903
(dp904
I2
F-99.99149294082697
sI5
F99.99999999999997
ssS'AB00BAB00'
p905
(dp906
I8
F-82.92175356735777
sI9
F-76.99088347463571
sI3
F-80.76200223692271
sI4
F-84.1891516416
ssS'0BBBABAA0'
p907
(dp908
I1
F-99.99908656147667
sI9
F99.99999999999997
ssS'00AB0B0BA'
p909
(dp910
I1
F-55.29316886246613
sI2
F-90.46001197543653
sI5
F79.30592363121869
sI7
F-41.04269448805418
ssS'AAB00BB00'
p911
(dp912
I8
F-85.6440173314434
sI9
F-64.66410086540296
sI4
F-92.05879381315475
sI5
F-57.74641904201995
ssS'00BB0B0AA'
p913
(dp914
I1
F-30.627265443926788
sI2
F-0.5701324794581701
sI5
F79.94809227551646
sI7
F99.99999999999997
ssS'ABBA0BBA0'
p915
(dp916
I9
F-99.98936617603371
sI5
F-99.98936617603371
ssS'000BA0BBA'
p917
(dp918
I1
F99.99999999999997
sI2
F-77.06140821501938
sI3
F-71.94563625953937
sI6
F-31.654630462446438
ssS'B0AB0AAB0'
p919
(dp920
I9
F67.232
sI2
F79.9989481448055
sI5
F48.8
ssS'0A000A0BB'
p921
(dp922
I1
F-34.94104677746796
sI3
F-10.75712
sI4
F-36.79492607523034
sI5
F-20.0
sI7
F39.97082524192773
ssS'AAB0BA0BB'
p923
(dp924
I4
F-99.99996786123911
sI7
F-4.999999999999998
ssS'A00BAB0B0'
p925
(dp926
I9
F99.99999999999997
sI2
F66.75678486968805
sI3
F79.99999999999982
sI7
F79.97592015962398
ssS'B0A000A0B'
p927
(dp928
I8
F0.6055979441618611
sI2
F-46.5006215262561
sI4
F49.22440898554068
sI5
F99.99999999999997
sI6
F46.86383893136505
ssS'0BAB000AB'
p929
(dp930
I1
F-19.20809458964363
sI5
F-23.295559261826725
sI6
F-62.77642481506068
sI7
F-21.310745415392542
ssS'A00AB00BB'
p931
(dp932
I2
F31.81628847452913
sI3
F-87.58941132310524
sI6
F-56.55988386985151
sI7
F99.99999999999997
ssS'AA0BA0BB0'
p933
(dp934
I9
F73.7856
sI3
F99.99999999998387
sI6
F22.958743454181686
ssS'B0AAA0B0B'
p935
(dp936
I8
F79.88979899389638
sI2
F-99.5602227398979
sI6
F99.99999999999997
ssS'BAB0AAB00'
p937
(dp938
I8
F73.7856
sI9
F-73.7856
sI4
F99.99995982654889
ssS'A0AB00B00'
p939
(dp940
I8
F63.610788162460224
sI9
F79.84362703777016
sI2
F99.99999999999997
sI5
F70.73077576735655
sI6
F68.20718098107831
ssS'BABABAAB0'
p941
(dp942
I9
F-4.999999999999998
ssS'0B0A00B0A'
p943
(dp944
I8
F12.900945404290425
sI1
F2.2226625415218884
sI3
F25.155861429206624
sI5
F53.84885828781209
sI6
F37.782801952690335
ssS'0BB0AABA0'
p945
(dp946
I1
F79.99999999927547
sI4
F83.222784
sI9
F-0.00044687762226303107
ssS'BB00AB0A0'
p947
(dp948
I9
F-99.44287103922568
sI3
F-5.88349884034362
sI4
F-99.80389015859399
sI7
F-99.97920361498878
ssS'BAAA00B0B'
p949
(dp950
I8
F-69.29469521837338
sI5
F-78.33197318825981
sI6
F-79.02848
ssS'A00BA000B'
p951
(dp952
I8
F11.069838210262695
sI2
F37.99388207036331
sI3
F27.481227948000978
sI6
F-4.469665657195321
sI7
F-6.212998810339155
ssS'B0BBAB0AA'
p953
(dp954
I2
F99.99999999999997
sI7
F99.99997943119304
ssS'0BA0B0BA0'
p955
(dp956
I1
F-22.618313248676795
sI4
F-25.642885781549165
sI6
F-27.00405095326513
sI9
F2.9442402612992256
ssS'B0ABB00AA'
p957
(dp958
I2
F-89.26258176
sI6
F99.9999999837037
sI7
F93.12805232640001
ssS'A00ABBB00'
p959
(dp960
I8
F-77.6949367476068
sI9
F-96.47994184005773
sI2
F-97.16272281716263
sI3
F1.6887066539051925
ssS'0BBAA0000'
p961
(dp962
I8
F-67.232
sI1
F65.51483641248203
sI9
F-63.981232857278236
sI6
F99.99999999942663
sI7
F-57.49890317205417
ssS'ABA00BB00'
p963
(dp964
I8
F-18.559079852488416
sI9
F-52.91714538774997
sI4
F-44.98299787934972
sI5
F-3.8223410078663913
ssS'BABA0AB0B'
p965
(dp966
I8
F-99.07766279631453
sI5
F99.99999990286656
ssS'AAB00000B'
p967
(dp968
I8
F-59.04
sI4
F-56.74197015624024
sI5
F-57.121725661867295
sI6
F-53.14679818131158
sI7
F-56.9869180293155
ssS'AAB00B000'
p969
(dp970
I8
F-67.53688673606698
sI9
F-8.07656968363149
sI4
F-71.50941667102646
sI5
F-57.18135703219629
sI7
F-72.87878072730616
ssS'A0B0BAA0B'
p971
(dp972
I8
F30.15281315520368
sI2
F34.77888655805824
sI4
F99.99999999999991
ssS'BBAA0BB0A'
p973
(dp974
I8
F-4.999999999999998
sI5
F-4.999999999999998
ssS'A00AB0B00'
p975
(dp976
I8
F-90.1343704318552
sI9
F-61.712877505052134
sI2
F-78.23951746750284
sI3
F-9.900523697048422
sI6
F-90.17458761577514
ssS'AAB0BB00A'
p977
(dp978
I8
F-91.41006540800001
sI4
F-89.89792940274813
sI7
F-13.68079362753548
ssS'AB0B000BA'
p979
(dp980
I3
F-11.296808775679498
sI5
F99.99999999999997
sI6
F32.198585890813504
sI7
F-35.85530290966317
ssS'BAAA0BBBA'
p981
(dp982
I5
F-4.999999999964165
ssS'0AAA0BBB0'
p983
(dp984
I1
F99.9594351807927
sI5
F-17.721465851203988
sI9
F31.02362764640872
ssS'B00B0BAA0'
p985
(dp986
I9
F99.99999999999997
sI2
F31.1255516067633
sI3
F-7.358535159610064
sI5
F79.9997225982041
ssS'AA0BBAB0B'
p987
(dp988
I8
F-99.99996786123911
sI3
F99.99999999999997
ssS'AB00AA0BB'
p989
(dp990
I3
F-20.709700407185966
sI4
F79.02848
sI7
F79.99999923080033
ssS'BBAA000AB'
p991
(dp992
I5
F75.5806794222797
sI6
F15.99998744579653
sI7
F-36.0
ssS'B0AB00AB0'
p993
(dp994
I9
F64.95457054905968
sI2
F-24.007308701129755
sI5
F99.99999999999997
sI6
F71.08482094551125
ssS'AA0BB0ABB'
p995
(dp996
I3
F99.99999999999997
sI6
F-4.99999999999874
ssS'A00BB00A0'
p997
(dp998
I9
F-22.92742227704192
sI2
F-37.74073774649648
sI3
F-67.19028909580949
sI6
F4.515944346401135
sI7
F-93.91937609070592
ssS'BBAAAB0B0'
p999
(dp1000
I9
F-4.999999999999998
sI7
F99.99999999999997
ssS'B00B0AA0B'
p1001
(dp1002
I8
F-96.64221458581626
sI2
F-98.87876785038331
sI3
F-32.27235108120098
sI5
F9.374828082104191
ssS'AA0ABB0BB'
p1003
(dp1004
I3
F99.99999999999997
sI7
F99.99994978318611
ssS'0A0AABBB0'
p1005
(dp1006
I1
F-81.27908000658505
sI3
F-65.39726875279811
sI9
F26.186844798337443
ssS'AA0B00B00'
p1007
(dp1008
I8
F56.5954461227939
sI9
F60.440533606851304
sI3
F99.99999999999997
sI5
F75.1816561743821
sI6
F67.98097185684719
ssS'0B00A0BBA'
p1009
(dp1010
I1
F99.99999999999997
sI3
F61.7676665498193
sI4
F74.34945275286884
sI6
F79.99999998593077
ssS'AABBB00BA'
p1011
(dp1012
I6
F-99.99999999999997
sI7
F-99.99999999999997
ssS'0ABB000BA'
p1013
(dp1014
I1
F-57.60038836937882
sI5
F5.602975560299034
sI6
F-66.2395995199626
sI7
F-36.95870732243296
ssS'000BAA0BB'
p1015
(dp1016
I1
F-59.95042462585931
sI2
F-27.36656572735916
sI3
F-34.56987345947809
sI7
F-2.3941498182469427
ssS'ABBA0ABB0'
p1017
(dp1018
I9
F-96.4815627911168
sI5
F99.99999326001333
ssS'00ABAAB0B'
p1019
(dp1020
I8
F-99.35622082723505
sI1
F-67.10526638472044
sI2
F-99.99885820184583
ssS'AB0A0BB00'
p1021
(dp1022
I8
F-62.4707329347863
sI9
F-39.04100895085985
sI3
F-69.3991184561174
sI5
F-62.01188206680946
ssS'A0ABABB00'
p1023
(dp1024
I8
F79.52770318893243
sI9
F99.94929397599087
sI2
F99.99999999999997
ssS'000000000'
p1025
(dp1026
I1
F4.746915674974421
sI2
F6.455583815989611
sI3
F2.6029473196280595
sI4
F1.5696092974748803
sI5
F5.072830645382661
sI6
F-4.058846118465931
sI7
F0.11856340999118542
sI8
F-4.1776169760727875
sI9
F3.332959238354055
ssS'0A0AABB0B'
p1027
(dp1028
I8
F99.99999460801067
sI1
F-59.04
sI3
F-14.228480000000005
ssS'ABBA0BB0A'
p1029
(dp1030
I8
F-99.99970068446467
sI5
F99.99999999999997
ssS'ABBA0ABBA'
p1031
(dp1032
I5
F86.5782272
ssS'B0B0ABA00'
p1033
(dp1034
I8
F-99.98671373449176
sI9
F-78.01188692417942
sI2
F-99.94537913146989
sI4
F-99.97816423726353
ssS'B0AA0BA0B'
p1035
(dp1036
I8
F-10.555678003607873
sI2
F-4.610718684857655
sI5
F99.99990192028538
ssS'000BBAB0A'
p1037
(dp1038
I8
F-62.53065981055518
sI1
F-62.71896020068819
sI2
F-63.778046554658175
sI3
F99.99999999999997
ssS'00B00BA00'
p1039
(dp1040
I1
F-31.6316484119577
sI2
F-73.440201031507
sI4
F-26.44895097769531
sI5
F-32.01310531098328
sI8
F-18.33500384537365
sI9
F44.646389637764116
ssS'BABB0A0BA'
p1041
(dp1042
I5
F-96.4815627911168
sI7
F-4.999999784320427
ssS'BA0BB00A0'
p1043
(dp1044
I9
F-70.70586771454788
sI3
F-99.26213023705162
sI6
F-99.4097041896413
sI7
F-99.29978610336642
ssS'AA00ABBB0'
p1045
(dp1046
I9
F86.5782272
sI3
F99.99999999999889
sI4
F-90.09724544311925
ssS'A0BA0BB00'
p1047
(dp1048
I8
F-95.72786933218052
sI9
F-95.8985202505893
sI2
F-95.5983024033943
sI5
F-95.66900012654071
ssS'BAAB0BAB0'
p1049
(dp1050
I9
F-99.69776854509635
sI5
F99.99999999999997
ssS'0BA0AB000'
p1051
(dp1052
I8
F30.23887039033913
sI1
F78.07960851625987
sI7
F99.99999999999997
sI4
F50.06526218951076
sI9
F72.87597724679763
ssS'AAB00BBA0'
p1053
(dp1054
I9
F-20.0
sI4
F-36.0
sI5
F95.601953488896
ssS'AAB0000B0'
p1055
(dp1056
I9
F0.10587549411435315
sI4
F-4.4987129040649485
sI5
F-18.340179036300874
sI6
F-9.972015631089372
sI7
F5.802339696867536
ssS'B00ABBBAA'
p1057
(dp1058
I2
F-99.99999996817131
sI3
F-4.999999999999998
ssS'BA0AAB00B'
p1059
(dp1060
I8
F99.99999999999997
sI3
F79.99999999999996
sI7
F-34.42406227212512
ssS'ABA00B00B'
p1061
(dp1062
I8
F-5.210676691273301
sI4
F-3.1389568254148372
sI5
F9.032388925858479
sI7
F77.6496718692172
ssS'BA0B0000A'
p1063
(dp1064
I8
F32.499428837939256
sI3
F-10.370556278712336
sI5
F-50.73805389753854
sI6
F-27.32690534490964
sI7
F63.45802114032441
ssS'000BAA0B0'
p1065
(dp1066
I7
F11.989748569537214
sI1
F6.744282306695213
sI2
F-48.30544483800368
sI3
F48.19387690731823
sI9
F77.11825331387064
ssS'ABBA0B00A'
p1067
(dp1068
I8
F58.617663318165384
sI5
F99.99941539934507
sI7
F67.232
ssS'BA0A0BB00'
p1069
(dp1070
I8
F-38.76997848172149
sI9
F-18.82121478979747
sI3
F-46.797021699899865
sI5
F-4.909520259655565
ssS'BA0ABA0B0'
p1071
(dp1072
I9
F7.72373022969207
sI3
F-0.030948500982130867
sI7
F-1.3704882416388575
ssS'AB0BBA0AB'
p1073
(dp1074
I3
F-4.999999999999998
sI7
F-4.999999999999998
ssS'0B0A0ABAB'
p1075
(dp1076
I1
F8.197920056657987
sI3
F7.086474127042915
sI5
I0
ssS'BBA0AA0B0'
p1077
(dp1078
I9
F59.04
sI4
F99.99926924918134
sI7
F48.8
ssS'000B0A0B0'
p1079
(dp1080
I1
F-26.58707189574281
sI2
F-57.10148622919028
sI3
F-35.893808229803334
sI5
F-50.17331312266393
sI7
F-38.61569230668003
sI9
F-36.26998858888591
ssS'A00BABAB0'
p1081
(dp1082
I9
F98.1985601490518
sI2
F79.99999528261655
sI3
F99.99999999999997
ssS'BAA00000B'
p1083
(dp1084
I8
F-56.680704000000006
sI4
F-76.26207755884619
sI5
F59.77010935792094
sI6
F-72.03330685885925
sI7
F-76.537433644085
ssS'B0AAB0000'
p1085
(dp1086
I8
F-86.48910042195766
sI9
F17.99634219429695
sI2
F-64.03363507283316
sI6
F-47.87201515108645
sI7
F-77.95180738152746
ssS'0B0AABB00'
p1087
(dp1088
I8
F-72.87965853982733
sI1
F-64.2926592139407
sI3
F-34.185822773333236
sI9
F-2.3792767325494637
ssS'0AA00BB00'
p1089
(dp1090
I8
F51.1514223455555
sI1
F99.99999999999997
sI4
F41.30657825007875
sI5
F72.2885017632562
sI9
F54.557875730626634
ssS'B0A0B00BA'
p1091
(dp1092
I2
F1.6096665458247514
sI4
F-76.74506132198204
sI6
F99.99999999999997
sI7
F-92.52396722523314
ssS'B000A0000'
p1093
(dp1094
I2
F3.2738706621814
sI3
F-2.8429056963948662
sI4
F-0.8220856025177676
sI6
F-12.983881498115098
sI7
F-0.43237170109354267
sI8
F-7.48640417830042
sI9
F-9.914039428710744
ssS'BB0B0AAA0'
p1095
(dp1096
I9
F36.0
sI3
F77.62969489615257
sI5
I0
ssS'00A0B0BA0'
p1097
(dp1098
I1
F6.951061298636638
sI2
F-21.38543109191644
sI4
F-17.54831994838929
sI6
F-2.2428672230802555
sI9
F-4.579641151724578
ssS'BB0AAB00A'
p1099
(dp1100
I8
F-85.73525109331614
sI3
F-1.9480825883963613
sI7
F-33.78077314226287
ssS'0AA00BBB0'
p1101
(dp1102
I1
F99.99999999999997
sI4
F2.6735152414695342
sI5
F-79.5764688068376
sI9
F16.44881935828775
ssS'B0AAABBB0'
p1103
(dp1104
I9
F-4.999999999999998
sI2
F-99.99999999999997
ssS'BAB0A000B'
p1105
(dp1106
I8
F99.99999999999997
sI4
F-6.311761142374596
sI6
F67.11361619530186
sI7
F-80.32466246985278
ssS'0AA00B00B'
p1107
(dp1108
I8
F50.620609763836924
sI1
F99.99999999999997
sI4
F56.54117983326092
sI5
F71.09220247202771
sI7
F74.59635812318898
ssS'0B0000AB0'
p1109
(dp1110
I1
F-57.18832749926504
sI3
F-5.200400714714167
sI4
F-37.5016807142105
sI5
F63.23788977514789
sI6
F13.399690864276575
sI9
F-36.38374703656784
ssS'0B00ABAAB'
p1111
(dp1112
I1
F-52.147705495552
sI3
F99.99999990286656
sI4
F-43.02848069017463
ssS'A0A0BB000'
p1113
(dp1114
I8
F-31.49708255261313
sI9
F-32.46494336363263
sI2
F99.99999999999997
sI4
F62.41843061175605
sI7
F-61.05391518219182
ssS'ABABBA000'
p1115
(dp1116
I8
F7.199959836807136
sI9
F99.99999823315294
sI7
F-39.20220364798525
ssS'AABB0BBAA'
p1117
(dp1118
I5
F98.55884811924145
ssS'BA0A0B0BA'
p1119
(dp1120
I3
F-3.710709183445816
sI5
F-3.705362694183703
sI7
F-3.656399595557429
ssS'0BB00ABA0'
p1121
(dp1122
I1
F-81.33110226888927
sI4
F-79.76455742661166
sI5
F-67.41994647685604
sI9
F-83.62742888270125
ssS'0BAABA00B'
p1123
(dp1124
I8
F-88.09526012704913
sI1
F-84.98975287592376
sI7
F-83.222784
ssS'B0AA0BBA0'
p1125
(dp1126
I9
F-1.9519997943119272
sI2
F2.9807291160950626
sI5
F3.1323216394277136
ssS'00A0BB000'
p1127
(dp1128
I1
F-62.26243064734384
sI2
F-56.53715442927641
sI4
F-4.266840996073931
sI7
F-89.78718237744806
sI8
F-75.45647015096074
sI9
F-85.83254764702555
ssS'00A0BAB0B'
p1129
(dp1130
I8
F-96.59296813805601
sI1
F-99.79782157854154
sI2
F-99.59687867354276
sI4
F-99.99193414418693
ssS'0B00AABAB'
p1131
(dp1132
I1
F11.765019164985862
sI3
F-0.6953586489936052
sI4
F99.99999999999997
ssS'A0BBAAB0B'
p1133
(dp1134
I8
F-4.999999999999998
sI2
F-99.99999999999997
ssS'00A00BBAB'
p1135
(dp1136
I1
F16.29038043197748
sI2
F79.69031892354987
sI4
F-14.273076263803667
sI5
F18.319269484487748
ssS'0BB00000A'
p1137
(dp1138
I1
F-49.93005807678153
sI4
F-95.92298336950957
sI5
F-95.86890943892107
sI6
F-87.08133508992735
sI7
F-77.76634247444936
sI8
F-68.51679965693768
ssS'ABABBABA0'
p1139
(dp1140
I9
F99.99999999999997
ssS'0BBA0A000'
p1141
(dp1142
I8
F-16.882297170034686
sI1
F14.113610465280004
sI7
F14.900488372224002
sI5
F93.12805232640001
sI9
I0
ssS'0BAB0A0AB'
p1143
(dp1144
I1
F-1.4399999999910342
sI5
F28.73244559707144
sI7
F8.705993163449055
ssS'0BABA0BBA'
p1145
(dp1146
I1
F99.99999999999997
sI6
F99.99999999999997
ssS'A0BB0B0A0'
p1147
(dp1148
I9
F-36.05405573756295
sI2
F-66.183424
sI5
F-40.36413416978755
sI7
F-44.192285459485
ssS'BABA0B000'
p1149
(dp1150
I8
F-76.69320147911002
sI9
F-5.605818210009735
sI5
F-52.90019263025926
sI7
F-79.5598392223985
ssS'0AA0BB00B'
p1151
(dp1152
I8
F-81.35802207027635
sI1
F99.99999999999997
sI4
F-38.35393613601253
sI7
F-70.46594123425876
ssS'A0A0B00BB'
p1153
(dp1154
I2
F99.99999999999997
sI4
F-92.35358681538995
sI6
F-98.75773278900127
sI7
F-46.91788530433606
ssS'00B0BA0A0'
p1155
(dp1156
I1
F-58.89290443671301
sI2
F-84.45650440604902
sI7
F23.543536722564106
sI4
F-99.87261909375806
sI9
F-90.53437804133384
ssS'ABAB0BA00'
p1157
(dp1158
I8
F-53.930786536765545
sI9
F-31.1636134873087
sI5
F99.99999999999943
ssS'BABBB0A0A'
p1159
(dp1160
I8
F99.99999999999997
sI6
F-4.999999999990606
ssS'ABA00000B'
p1161
(dp1162
I8
F4.771031508492019
sI4
F-8.252567885998504
sI5
F-0.1127688338796059
sI6
F-38.86406456581799
sI7
F79.94256322526834
ssS'AB0AA00BB'
p1163
(dp1164
I3
F-9.154599083192323
sI6
F99.99999654912683
sI7
F91.41006540800001
ssS'ABA000B00'
p1165
(dp1166
I8
F9.066402446936184
sI9
F55.481039217747316
sI4
F-52.09717071154061
sI5
F2.302967884411368
sI6
F-3.0792802705665347
ssS'00BBABBAA'
p1167
(dp1168
I1
F99.99999999981212
sI2
F99.99999999999997
ssS'00A00BABB'
p1169
(dp1170
I1
F79.99999956393602
sI2
F37.73569369180654
sI4
F55.7160283122819
sI5
F99.99999999999997
ssS'000B00AB0'
p1171
(dp1172
I1
F-54.19625392396141
sI2
F-14.281793145721126
sI3
F-51.0125597946301
sI5
F5.194537460838688
sI6
F-21.299019223495044
sI9
F-62.33624689707506
ssS'BBAB0A0A0'
p1173
(dp1174
I9
F59.04
sI5
F-36.0
sI7
F79.99091947953157
ssS'ABAB0BA0B'
p1175
(dp1176
I8
F-99.99999779144117
sI5
F99.99999999999997
ssS'AB00ABB00'
p1177
(dp1178
I8
F15.171061616837846
sI9
F99.99999999999997
sI3
F7.438202815786608
sI4
F-56.44922417849935
ssS'ABBB0AB0A'
p1179
(dp1180
I8
F-99.99885820184583
sI5
F99.99999999999997
ssS'00B0BA0AB'
p1181
(dp1182
I1
F-90.07515247989731
sI2
F-96.44844871814718
sI4
F-92.09474839798153
sI7
F-87.80220880622556
ssS'AABABB000'
p1183
(dp1184
I8
F-89.26258176
sI9
F-40.70244732971611
sI7
F99.99984675044591
ssS'B0BB0A0A0'
p1185
(dp1186
I9
F-69.906980853867
sI2
F-70.81813975843649
sI5
F-73.3134751084892
sI7
F-53.931684460677076
ssS'A000BBB0A'
p1187
(dp1188
I8
F-97.59615785169888
sI2
F-64.04786928977161
sI3
F-97.67393520010258
sI4
F-96.2444372632744
ssS'0A0B0B0BA'
p1189
(dp1190
I1
F-93.77878883116617
sI3
F-94.29714084473778
sI5
F-9.135349426259467
sI7
F-88.48582081608505
ssS'B0A000BBA'
p1191
(dp1192
I2
F-51.41852068363664
sI4
F12.554705044358883
sI5
F-55.18574228526985
sI6
F99.99999999999997
ssS'ABBAA000B'
p1193
(dp1194
I8
F2.6646036478015738
sI6
F99.99999962946532
sI7
F86.5782272
ssS'A0BB00ABA'
p1195
(dp1196
I2
F8.186938203372858
sI5
F99.99999999999997
sI6
F7.411779077317526
ssS'B0A000BAB'
p1197
(dp1198
I2
F-97.89276083619751
sI4
F-85.04701857887724
sI5
F-98.85614184990267
sI6
F-99.97415806197947
ssS'BA00B0ABA'
p1199
(dp1200
I3
F-3.8984894992500396
sI4
F-3.9999948844743267
sI6
F-3.8873235119738196
ssS'ABAB0A0B0'
p1201
(dp1202
I9
F98.84707849539316
sI5
F79.99509686059639
sI7
F-34.05440210833176
ssS'0BBA0A00B'
p1203
(dp1204
I8
F-60.841524526855686
sI1
F65.50198289013446
sI5
F99.99999999999997
sI7
F-39.07701494608472
ssS'A0A0B00B0'
p1205
(dp1206
I9
F-44.31247276023426
sI2
F99.99999999999997
sI4
F-67.73698337611233
sI6
F7.362533631771569
sI7
F-48.59986939596465
ssS'AAB0BB0BA'
p1207
(dp1208
I4
F-99.99999999999662
sI7
F-99.99999999999577
ssS'0AA0BB000'
p1209
(dp1210
I8
F-47.72549361078548
sI1
F99.99999999999997
sI7
F4.218603162545474
sI4
F32.401053596115
sI9
F-73.02760923243557
ssS'0AAB00BBA'
p1211
(dp1212
I1
F99.99999999970643
sI5
F-73.7856
sI6
F67.232
ssS'B0A00BAAB'
p1213
(dp1214
I2
F-47.5474432
sI4
F-44.314592336804516
sI5
F99.9999990953743
ssS'BA00B0BAA'
p1215
(dp1216
I3
F-81.39014491143531
sI4
F-81.04287728039606
sI6
F-94.50244186112
ssS'000BBABA0'
p1217
(dp1218
I1
F-98.28930599274601
sI2
F-98.39217264753582
sI3
F-98.39631436964181
sI9
F-62.50575526226351
ssS'B0A000B0A'
p1219
(dp1220
I8
F-28.921561075338257
sI2
F45.446081196997454
sI4
F56.33175038435509
sI5
F-27.535103887564205
sI6
F99.99999999999997
ssS'0BBB000AA'
p1221
(dp1222
I1
F79.6988235044225
sI5
F15.251423985504811
sI6
F-48.970547469360724
sI7
F99.99999999999997
ssS'ABB0A0000'
p1223
(dp1224
I8
F18.224614725924564
sI9
F99.99999999999997
sI4
F79.0304444780154
sI6
F56.48856315608783
sI7
F77.68090628454208
ssS'A0A0BAB0B'
p1225
(dp1226
I8
F18.50874933573569
sI2
F99.99999999999997
sI4
F-75.28821974556641
ssS'B00A0A0B0'
p1227
(dp1228
I9
F15.43705004657869
sI2
F0.8842608130565281
sI3
F26.331265738829636
sI5
F91.41006540800001
sI7
F-12.435555218390277
ssS'0BBBA0BAA'
p1229
(dp1230
I1
F99.99999999999997
sI6
F-99.9999215362283
ssS'0BBA0ABA0'
p1231
(dp1232
I1
F-9.88435456
sI5
F36.0
sI9
I0
ssS'AABB0A0BB'
p1233
(dp1234
I5
F-98.84707849539316
sI7
F-4.9999999999770655
ssS'B000ABABA'
p1235
(dp1236
I2
F1.5649817945010827
sI3
F99.99999999999997
sI4
F17.8322314708617
ssS'BAB0A0000'
p1237
(dp1238
I8
F99.99999999999997
sI9
F17.399770658022604
sI4
F77.3386011174015
sI6
F79.41484427578426
sI7
F15.930507196567953
ssS'BABA0BB0A'
p1239
(dp1240
I8
F-99.99999723930146
sI5
F-4.999999999999998
ssS'AA0AB0BB0'
p1241
(dp1242
I9
F-39.87828395038057
sI3
F99.99999992229326
sI6
F-86.5782272
ssS'AABB0A00B'
p1243
(dp1244
I8
F-3.2430120030693828
sI5
F-3.141861611520439
sI7
F-3.3288430931849895
ssS'AB00ABBA0'
p1245
(dp1246
I9
F99.99999999999997
sI3
F2.7067604962477025
sI4
F2.3707814801801947
ssS'BAB0A00B0'
p1247
(dp1248
I9
F-13.907667576497921
sI4
F-21.010231751149615
sI6
F-20.28800227944448
sI7
F-5.596066640541995
ssS'AABBA0B0B'
p1249
(dp1250
I8
F99.99999999999997
sI6
F-99.99999999332503
ssS'A000BA0BB'
p1251
(dp1252
I2
F-75.44091626809139
sI3
F-35.47450222841428
sI4
F-77.14060993448972
sI7
F-78.93537868056188
ssS'AABA00BB0'
p1253
(dp1254
I9
F-62.3688613034684
sI5
F-54.19514696741399
sI6
F-83.222784
ssS'00A0A0B0B'
p1255
(dp1256
I8
F-2.1609825136392717
sI1
F-73.24413646149556
sI2
F-42.10167399800145
sI4
F-74.80011525602656
sI6
F-86.49783761156377
ssS'AAB0B00B0'
p1257
(dp1258
I9
F-97.20661391607865
sI4
F-37.40802125763582
sI6
F-92.67911071261538
sI7
F-11.114659936819617
ssS'0B0A000B0'
p1259
(dp1260
I1
F-7.42329510100306
sI3
F-17.171056575841124
sI5
F50.63709902661803
sI6
F26.651381895820364
sI7
F26.144153781009596
sI9
F-17.197488566920015
ssS'AB0ABB0AB'
p1261
(dp1262
I3
F-4.99999999999519
sI7
F99.99999999999997
ssS'BA00BAAB0'
p1263
(dp1264
I9
F7.648361489198809
sI3
F-99.97046615709662
sI4
F-83.72300674855316
ssS'BBAABABA0'
p1265
(dp1266
I9
F99.99998354495443
ssS'BA0AAB0BB'
p1267
(dp1268
I3
F-99.99999999999997
sI7
F-99.99999999999997
ssS'BAA000BBA'
p1269
(dp1270
I4
F24.007292986784
sI5
F-42.88760405145589
sI6
F99.99999999987975
ssS'0B0AA000B'
p1271
(dp1272
I8
F13.061754879345488
sI1
F37.18239027150663
sI3
F66.90353805844389
sI6
F99.99999999999577
sI7
F71.07266447778099
ssS'BAAB0BA00'
p1273
(dp1274
I8
F-6.878658559999998
sI9
F-45.43877885740015
sI5
F99.99987740035672
ssS'A0B0AB000'
p1275
(dp1276
I8
F-80.99943181476843
sI9
F99.99999999999997
sI2
F-88.02745680084307
sI4
F-63.384065147488165
sI7
F-56.72180029603161
ssS'BAB000000'
p1277
(dp1278
I4
F-19.68451914649733
sI5
F-6.6040151220366585
sI6
F-20.938390607198716
sI7
F-10.99625973878167
sI8
F-13.816338693689088
sI9
F-28.525739586414566
ssS'A0BA0B0B0'
p1279
(dp1280
I9
F77.58317964856442
sI2
F-44.53309526027758
sI5
F26.47223362564966
sI7
F99.99999999999997
ssS'0BBA0A0BA'
p1281
(dp1282
I1
F-26.395443199999995
sI5
F91.41006540800001
sI7
F-36.0
ssS'A0BB00A0B'
p1283
(dp1284
I8
F-65.75631288530238
sI2
F-42.7153314860891
sI5
F-24.893132385307403
sI6
F-3.999999999999998
ssS'A0BB0BABA'
p1285
(dp1286
I2
F-99.99999157501667
sI5
F99.99999999999997
ssS'B0000A0B0'
p1287
(dp1288
I2
F-14.323877282287713
sI3
F-10.77878739082022
sI4
F-16.234084840379886
sI5
F9.237470838865907
sI7
F-12.072969247846224
sI9
F-22.723041887644783
ssS'A0B00AABB'
p1289
(dp1290
I2
F30.063644419454448
sI4
F99.99999460801067
sI5
F11.587687209636227
ssS'ABBA0A0B0'
p1291
(dp1292
I9
F11.805696000000001
sI5
F94.50244186112
sI7
F36.0
ssS'ABA0B000B'
p1293
(dp1294
I8
F-5.136144566053765
sI4
F-64.85955443933436
sI6
F-98.84944482056179
sI7
F-98.8259374360389
ssS'0AA0BBAB0'
p1295
(dp1296
I1
F99.99999999984969
sI4
F25.42738134553006
sI9
F-75.49154925178523
ssS'BB0B0A00A'
p1297
(dp1298
I8
F-14.411177732142242
sI3
F99.99999999999997
sI5
F-10.508352834018172
sI7
F64.97934884390006
ssS'A0AB0BB00'
p1299
(dp1300
I8
F20.214080320105168
sI9
F41.140784665252205
sI2
F99.99999999999997
sI5
F62.33158334918954
ssS'0BBBAA000'
p1301
(dp1302
I8
F-56.42270964816496
sI1
F6.2442469388684945
sI7
F-34.88098736528667
sI9
F-30.606974539767354
ssS'0AABB00AB'
p1303
(dp1304
I1
F89.26258176
sI6
F-20.0
sI7
F-36.0
ssS'00AA0B00B'
p1305
(dp1306
I8
F13.024175877423533
sI1
F79.30333440681
sI2
F24.37792247741821
sI5
F12.083200026324134
sI7
F7.808
ssS'AABB0B00A'
p1307
(dp1308
I8
F-37.4594500722688
sI5
F99.99999970357226
sI7
F-26.33392637615194
ssS'00A0A0BB0'
p1309
(dp1310
I1
F-63.6214076828831
sI2
F-69.22937468133823
sI4
F-58.180007720787934
sI6
F-86.58533868856773
sI9
F71.72159740304518
ssS'BA0BA0000'
p1311
(dp1312
I8
F99.99999999999997
sI9
F-80.28936810662256
sI3
F-94.54673152835268
sI6
F-95.15355790719718
sI7
F67.96058248752077
ssS'ABBA000AB'
p1313
(dp1314
I5
F-31.08813251289031
sI6
F45.68168028833715
sI7
F99.80657186886167
ssS'0BA0A0BAB'
p1315
(dp1316
I1
F-3.999999999999998
sI4
F-3.9212558488741984
sI6
F-2.9755197159946465
ssS'BA0AA00BB'
p1317
(dp1318
I3
F-48.6641041896413
sI6
F99.99999999999997
sI7
F78.19856014905174
ssS'B0000A00B'
p1319
(dp1320
I2
F-47.08186774999763
sI3
F-53.55099901618883
sI4
F-31.093607188294314
sI5
F9.970030950612404
sI7
F-25.467682189395354
sI8
F-80.75221497556774
ssS'BAAA0BBAB'
p1321
(dp1322
I5
F99.99998683596354
ssS'BAABB0A00'
p1323
(dp1324
I8
F-93.12805232640001
sI9
F-93.18610841776184
sI6
F-58.44247776312424
ssS'0AB0B00AB'
p1325
(dp1326
I1
F-95.14649938058106
sI4
F-95.601953488896
sI6
F-95.973983237836
sI7
F-95.37648382196383
ssS'ABBA0A00B'
p1327
(dp1328
I8
F42.87464705353971
sI5
F20.0
sI7
F99.87620599607146
ssS'AAB0B0000'
p1329
(dp1330
I8
F-96.29489785516404
sI9
F-98.87251270562584
sI4
F-68.1116878166315
sI6
F-78.49684966561927
sI7
F-4.445366802192267
ssS'0AA0B0BAB'
p1331
(dp1332
I1
F99.99885820184583
sI4
F-20.0
sI6
F-20.03094850098213
ssS'ABBBA0A0B'
p1333
(dp1334
I8
F-99.99999999999997
sI6
F-4.999999999999998
ssS'000BAABB0'
p1335
(dp1336
I1
F-69.57901121367124
sI2
F-90.58089525705518
sI3
F-96.28358691381875
sI9
F-91.04450292747154
ssS'0BAAB0B0A'
p1337
(dp1338
I8
F0.923869135562442
sI1
F-85.89129013067775
sI6
F99.99994978318611
ssS'0A0AB0B0B'
p1339
(dp1340
I8
F-81.62383362384828
sI1
F-84.71135529322191
sI3
F-83.91650560109883
sI6
F-83.222784
ssS'B0000A000'
p1341
(dp1342
I2
F-10.386674978398574
sI3
F55.300029420087505
sI4
F-15.130423258195616
sI5
F-8.746712823204973
sI7
F-8.714430335448668
sI8
F-23.599925263969112
sI9
F-20.55885641377685
ssS'B0AA00BAB'
p1343
(dp1344
I2
F-22.933480333494266
sI5
F79.996179284088
sI6
F-12.370957988111533
ssS'0AB00A0B0'
p1345
(dp1346
I1
F-16.436585327221223
sI7
F0.29687920551900643
sI4
F1.0167628551966437
sI5
F20.69290060544458
sI9
F-3.716123355000673
ssS'A000BBAAB'
p1347
(dp1348
I2
F-99.69776854509635
sI3
F-74.59474988977595
sI4
F99.99999999999997
ssS'B0B0AAAB0'
p1349
(dp1350
I9
F-48.341048871443036
sI2
F20.196320151581578
sI4
F99.9999999916563
ssS'BBAB0000A'
p1351
(dp1352
I8
F6.715266160576469
sI5
F-28.382879863197292
sI6
F99.99999999999997
sI7
F79.99999972907322
ssS'BAA0AB0B0'
p1353
(dp1354
I9
F2.3343123170741333
sI4
F11.505448321631627
sI7
F99.99999999999997
ssS'BABA0A0BB'
p1355
(dp1356
I5
F99.99999886921788
sI7
F-98.84707849539316
ssS'A0A0BB0B0'
p1357
(dp1358
I9
F-68.39244850968716
sI2
F99.99999999999997
sI4
F-28.864030014580198
sI7
F-75.5040411195614
ssS'BA0BBA0A0'
p1359
(dp1360
I9
F-96.50773525585181
sI3
F-98.1985601490518
sI7
F-92.6892269664883
ssS'B000A000B'
p1361
(dp1362
I2
F-34.50816416639293
sI3
F-44.138938255686384
sI4
F4.007449641569489
sI6
F-25.94285320481482
sI7
F-70.4260412669926
sI8
F-25.087916813912116
ssS'A0A0BA0BB'
p1363
(dp1364
I2
F99.99999999999997
sI4
F-99.07766279631453
sI7
F-19.329911138295135
ssS'0A00BB000'
p1365
(dp1366
I1
F-66.55151649020937
sI3
F-85.40265181658414
sI4
F-76.22794631950076
sI7
F-78.11404829646185
sI8
F-66.4853888072064
sI9
F-91.86197774387074
ssS'A00ABB000'
p1367
(dp1368
I8
F34.804125097817405
sI9
F12.844744480497866
sI2
F61.49124549795966
sI3
F64.94006237157086
sI7
F99.99999999999997
ssS'0B0000ABA'
p1369
(dp1370
I1
F-39.267641910307745
sI3
F-18.92477245703861
sI4
F-71.60978830787852
sI5
F61.81183609371911
sI6
F-30.364519488108236
ssS'B00AB0000'
p1371
(dp1372
I2
F-95.33869443344685
sI3
F-96.57475914559147
sI6
F-92.70111793174269
sI7
F-93.4562538400986
sI8
F-98.42321858373212
sI9
F-69.45989042159981
ssS'0AB000000'
p1373
(dp1374
I1
F-31.243887604944895
sI4
F-14.284416728541062
sI5
F4.197660878055104
sI6
F-13.408607025575378
sI7
F-3.010562115783136
sI8
F-43.20253325483845
sI9
F9.175646180665161
ssS'AABAABBB0'
p1375
(dp1376
I9
F99.99999723930146
ssS'0B0A00000'
p1377
(dp1378
I1
F33.21699951574218
sI3
F8.232036417204604
sI5
F62.53781509427432
sI6
F-16.63717826018909
sI7
F-3.696693162921799
sI8
F20.22546542799983
sI9
F20.855684450952378
ssS'00BB0AA00'
p1379
(dp1380
I8
F16.4579404342147
sI1
F9.856406587894124
sI2
F9.676376198455564
sI5
F10.541598012891669
sI9
F9.491795251360745
ssS'0AA0AB0BB'
p1381
(dp1382
I1
F99.99999999999997
sI4
F-92.61609551572592
sI7
F95.601953488896
ssS'AA0B00B0B'
p1383
(dp1384
I8
F66.20153527585653
sI3
F99.99999999999997
sI5
F-71.81366877095057
sI6
F-34.49408249438082
ssS'BBAA0B0BA'
p1385
(dp1386
I5
F-4.999999999999998
sI7
F-99.99319435266158
ssS'0BBA0A0B0'
p1387
(dp1388
I1
F4.18746375553552
sI7
F-19.996067190403135
sI5
F99.99999999996848
sI9
F-65.86679156520864
ssS'AB0A00BB0'
p1389
(dp1390
I9
F-93.02742148097487
sI3
F-95.27296097765507
sI5
F-94.38985204708013
sI6
F-95.06068080407242
ssS'ABBB0B0AA'
p1391
(dp1392
I5
F99.99319435266158
sI7
F99.99999999999997
ssS'A0ABBA0B0'
p1393
(dp1394
I9
F73.7856
sI2
F99.99999999332503
sI7
F39.03999865200257
ssS'BAB0A0B00'
p1395
(dp1396
I8
F99.99999999999997
sI9
F-94.94178208260288
sI4
F60.62140507276716
sI6
F-75.52624089256538
ssS'00BA0AB0B'
p1397
(dp1398
I8
F-2.5334458167633045
sI1
F-95.09000723069335
sI2
F-53.30085563737226
sI5
F99.99999999999997
ssS'BAA00B00B'
p1399
(dp1400
I8
F-49.54815495312751
sI4
F-91.19146762974741
sI5
F44.04914938205141
sI7
F-79.32791537490134
ssS'BBA0AA00B'
p1401
(dp1402
I8
F79.87620175763693
sI4
F99.99999999999997
sI7
F99.52776335171305
ssS'AA0B0B000'
p1403
(dp1404
I8
F-44.252546078331854
sI9
F-45.252466887887124
sI3
F99.99999999999997
sI5
F65.0078405678327
sI7
F-47.99601352539655
ssS'ABBAB000A'
p1405
(dp1406
I8
F-20.0
sI6
F-73.7856
sI7
F99.99821594038411
ssS'AA0B000BB'
p1407
(dp1408
I3
F99.99999999999997
sI5
F-34.0453366600908
sI6
F-41.7500452319135
sI7
F33.76121446473225
ssS'0BBBA0AAB'
p1409
(dp1410
I1
F-99.99999999999997
sI6
F-99.99999999999997
ssS'0A0B0B0A0'
p1411
(dp1412
I1
F-20.0
sI3
F13.852516352000002
sI9
F-7.219807040628568
sI5
I0
sI7
I0
ssS'0000B0000'
p1413
(dp1414
I1
F-35.358906405401754
sI2
F-43.40204631546461
sI3
F-26.831118006541846
sI4
F-44.15128765682637
sI6
F-61.44866982616675
sI7
F-5.8951788503211064
sI8
F-57.457836475668024
sI9
F-39.297093197881125
ssS'BABB0BAA0'
p1415
(dp1416
I9
F99.75821483607709
sI5
F99.99999999999997
ssS'BAAAB0BBA'
p1417
(dp1418
I6
F99.99999999999997
ssS'A0A0BBA0B'
p1419
(dp1420
I8
F-43.94099812002949
sI2
F99.99999999999997
sI4
F99.75821483607709
ssS'BAB0AABB0'
p1421
(dp1422
I9
F-99.9999999999998
sI4
F99.99999999999997
ssS'0B0BABA00'
p1423
(dp1424
I8
F76.73373566854964
sI1
F69.37893860210355
sI3
F99.99999999999997
sI9
F79.99999999999932
ssS'B00B0A0A0'
p1425
(dp1426
I9
F-20.0
sI2
F3.999539199999999
sI3
F-31.17317943210978
sI5
F-3.445760052295668
sI7
F58.60650855283874
ssS'0BBBAA0BA'
p1427
(dp1428
I1
F99.99999999999997
sI7
F-99.99999984822901
ssS'AA0B0B0AB'
p1429
(dp1430
I3
F99.80657186886167
sI5
F67.232
sI7
F-73.7856
ssS'0AB0A0B00'
p1431
(dp1432
I8
F99.99999999999997
sI1
F76.39688018412231
sI4
F63.1698032413691
sI6
F60.405976782455404
sI9
F77.46674968118326
ssS'BBAA0BAB0'
p1433
(dp1434
I9
F-99.87620599607146
sI5
F99.99999999999997
ssS'0B0BBAA00'
p1435
(dp1436
I8
F18.12217832639452
sI1
F-91.41487695836692
sI3
F-70.62936596156521
sI9
F-78.30886892919841
ssS'0AAB0B000'
p1437
(dp1438
I8
F15.171171503121794
sI1
F99.99999999999997
sI7
F-26.424932640688024
sI5
F60.573453646551684
sI9
F-43.352047853603025
ssS'A0A0BBABB'
p1439
(dp1440
I2
F99.99999999999997
sI4
F99.9999999991041
ssS'ABBBA0A00'
p1441
(dp1442
I8
F9.906456572707985
sI9
F99.99999999999997
sI6
F-0.8918210752091019
ssS'AB0000B0A'
p1443
(dp1444
I8
F53.92028590931505
sI3
F79.4329121965464
sI4
F35.80784360082882
sI5
F99.99999999999997
sI6
F68.65778147448685
ssS'00A0BB0BA'
p1445
(dp1446
I1
F-98.78019792561842
sI2
F-98.48739875219034
sI4
F-91.23197124837627
sI7
F-95.33963794526893
ssS'ABABAB0B0'
p1447
(dp1448
I9
F99.99999999999997
sI7
F99.99999999999997
ssS'B0BA00BA0'
p1449
(dp1450
I9
F-86.8838026260662
sI2
F-74.79523646328894
sI5
F-72.83248598234384
sI6
F-76.18097009982824
ssS'A0BBBA0AB'
p1451
(dp1452
I2
F-99.99721240685018
sI7
F-4.999999999999998
ssS'AB0BB0A0A'
p1453
(dp1454
I8
F99.99999999999174
sI3
F-95.601953488896
sI6
F-67.22728140800001
ssS'A0000AB0B'
p1455
(dp1456
I8
F12.116871780378194
sI2
F-49.19857572296306
sI3
F-49.78913558881139
sI4
F-33.37819235290665
sI5
F-55.31311590710165
ssS'A0B0ABAB0'
p1457
(dp1458
I9
F97.18525023289344
sI2
F-68.58881930858911
sI4
F99.99999999999997
ssS'BB000ABA0'
p1459
(dp1460
I9
F-67.14049454397927
sI3
F-76.28859806514363
sI4
F-69.04612959516761
sI5
F-71.426304
ssS'00AB00B0A'
p1461
(dp1462
I8
F37.22977171938065
sI1
F78.04311221447621
sI2
F11.455801422492524
sI5
F11.350217008715802
sI6
F99.99999999999997
ssS'A0BB0A0AB'
p1463
(dp1464
I2
F-0.4047828322710225
sI5
F-0.8392079750844613
sI7
F-2.6833770413993765
ssS'BB00A00BA'
p1465
(dp1466
I3
F72.19278977227667
sI4
F-69.1241314191156
sI6
F-76.73011346523396
sI7
F-33.18790954767242
ssS'AB0B0ABA0'
p1467
(dp1468
I9
F53.78227363888961
sI3
F22.23999981907491
sI5
F15.71176962384829
ssS'0AAB00B00'
p1469
(dp1470
I8
F19.736163198096506
sI1
F99.99999999999997
sI5
F5.162180733131301
sI6
F9.043846078234385
sI9
F-2.984120676334488
ssS'A0A00BBAB'
p1471
(dp1472
I2
F99.99999987858321
sI4
F38.37617866252004
sI5
F41.44313948936928
ssS'00AB0AABB'
p1473
(dp1474
I1
F79.99999999999793
sI2
F37.93836160720677
sI5
F89.26258176
ssS'A00ABB00B'
p1475
(dp1476
I8
F-91.49587191518853
sI2
F-76.15603289839133
sI3
F76.40087561430359
sI7
F99.99999999999997
ssS'BABAA0BBA'
p1477
(dp1478
I6
F99.99999999999997
ssS'ABA0ABB00'
p1479
(dp1480
I8
F28.550879912766458
sI9
F99.99999999999997
sI4
F-3.645689553713152
ssS'BA0000000'
p1481
(dp1482
I3
F-27.684615712453663
sI4
F-3.9109985529207876
sI5
F-1.6788632332185576
sI6
F-34.72632050767157
sI7
F10.253384809588827
sI8
F-33.15495235845927
sI9
F-23.09226483660818
ssS'BABAA0B00'
p1483
(dp1484
I8
F99.99962585558085
sI9
F53.78559222496692
sI6
F59.04
ssS'BBAA00BA0'
p1485
(dp1486
I9
F-0.799999999916563
sI5
F-1.5408525749508932
sI6
F79.91763418564359
ssS'0B0B0AA00'
p1487
(dp1488
I8
F29.667746461564466
sI1
F38.39120291185067
sI3
F73.62717490359434
sI5
F4.955939084391554
sI9
F38.476492525862795
ssS'0A00B00AB'
p1489
(dp1490
I1
F-59.94448896200545
sI3
F-64.43120177464245
sI4
F-67.232
sI6
F-59.04
sI7
F-73.7856
ssS'B0BABA00A'
p1491
(dp1492
I8
F-98.84707849539316
sI2
F-98.69318585487652
sI7
F-98.6821608966696
ssS'AA0B00BB0'
p1493
(dp1494
I9
F52.98783950169135
sI3
F99.99999999999997
sI5
F-40.960889019095916
sI6
F-94.98663419411287
ssS'BAB00ABA0'
p1495
(dp1496
I9
I0
sI4
F-20.0
sI5
F67.232
ssS'A00BA0B00'
p1497
(dp1498
I8
F74.34614777232105
sI9
F99.99999999999997
sI2
F68.67702071107618
sI3
F66.97884440401056
sI6
F3.752501384493012
ssS'A0AABBBB0'
p1499
(dp1500
I9
F-99.9999999999606
sI2
F99.99999999999997
ssS'00AABA0BB'
p1501
(dp1502
I1
F-79.02848
sI2
F-79.02848
sI7
F-79.02848
ssS'BAB0A0BBA'
p1503
(dp1504
I4
F-4.999999999999998
sI6
F-99.99999999999997
ssS'00B0BBA0A'
p1505
(dp1506
I8
F99.99999999999997
sI1
F-44.555699298878366
sI2
F-82.13648145658229
sI4
F75.58843412487789
ssS'BBA0ABBA0'
p1507
(dp1508
I9
F-99.99999999999997
sI4
F-4.999999999999998
ssS'BB0A0A00B'
p1509
(dp1510
I8
F-48.53472160359996
sI3
F26.51964358171379
sI5
F99.99999987858321
sI7
F-57.698145606393254
ssS'BBA0A0BBA'
p1511
(dp1512
I4
F-4.999999999999998
sI6
F99.99999999999997
ssS'000ABABBA'
p1513
(dp1514
I1
F-59.04
sI2
F-48.8
sI3
F97.18525023289344
ssS'BAAAB0BB0'
p1515
(dp1516
I9
F-4.999999999999998
sI6
F-99.99885820184583
ssS'0BAA0BB00'
p1517
(dp1518
I8
F-3.9999998144268845
sI1
F-49.32591374411349
sI5
F-13.69848511466003
sI9
F-5.492306892092541
ssS'ABBA0B000'
p1519
(dp1520
I8
F-47.39403803112104
sI9
F61.36286192725341
sI5
F-17.166893979522868
sI7
F99.99999999999997
ssS'0ABBAA0B0'
p1521
(dp1522
I1
F31.16301268332032
sI9
F2.909694834353333
sI7
F-3.999999999999998
ssS'BBA00AAB0'
p1523
(dp1524
I9
F79.02848
sI4
F53.670792934312644
sI5
F99.99821594038411
ssS'0A00BB0BA'
p1525
(dp1526
I1
F-94.34602142302373
sI3
F-38.02540376561247
sI4
F-7.706312323912776
sI7
F-87.5171034172213
ssS'0AABA0B0B'
p1527
(dp1528
I8
F59.04
sI1
F99.96754814463415
sI6
F-59.04
ssS'B00ABB0A0'
p1529
(dp1530
I9
F41.78216464031297
sI2
F-82.83861490845693
sI3
F-57.40143384650053
sI7
F-1.2715272965628515
ssS'0ABBBAA00'
p1531
(dp1532
I8
F1.3386145204000928
sI1
F-3.9811081392259493
sI9
F0.5989048900525662
ssS'00B0ABBA0'
p1533
(dp1534
I1
F-24.664763438564634
sI2
F99.99999999999997
sI4
F-94.3107722613654
sI9
F46.9114136233876
ssS'ABBB0BA0A'
p1535
(dp1536
I8
F99.99999984822901
sI5
F99.99999999999997
ssS'BA00A00BB'
p1537
(dp1538
I3
F-83.1768101073253
sI4
F-99.84217490670565
sI6
F-99.9634531211864
sI7
F-23.276035245868055
ssS'BABB0AA00'
p1539
(dp1540
I8
F78.15953896505265
sI9
F11.994747568966117
sI5
F29.12947767199705
ssS'A00AB000B'
p1541
(dp1542
I8
F29.77090260521481
sI2
F75.27094139973504
sI3
F60.99589686678012
sI6
F-2.138385042341291
sI7
F99.99999999999997
ssS'BAA0A0B0B'
p1543
(dp1544
I8
F99.9999999999998
sI4
F-51.684338974720006
sI6
F-97.18525023289344
ssS'A0BA0B000'
p1545
(dp1546
I8
F-22.377498397231964
sI9
F50.8629721086676
sI2
F15.727354314753033
sI5
F-30.63219219132304
sI7
F99.99999999942663
ssS'0BBBAAA00'
p1547
(dp1548
I8
F-62.87401962213164
sI1
F16.57646721989193
sI9
F-99.3323230924884
ssS'0AAB0AB0B'
p1549
(dp1550
I8
F-20.0
sI1
F98.1985601490518
sI5
F-48.8
ssS'AAB00AB0B'
p1551
(dp1552
I8
F-76.66038291039479
sI4
F-91.41006540800001
sI5
F-74.49374343677916
ssS'A00BA0BB0'
p1553
(dp1554
I9
F99.99999999999997
sI2
F-83.7360777708024
sI3
F-73.74976979189887
sI6
F-60.450963991813424
ssS'AA0BB0B0A'
p1555
(dp1556
I8
F-73.7856
sI3
F99.99996786123911
sI6
F-7.205196410619926
ssS'0ABB00AB0'
p1557
(dp1558
I1
F-37.285041333915025
sI5
F-7.819280243074285
sI6
F-3.9999997446176163
sI9
F-8.336681181021364
ssS'ABA000BBA'
p1559
(dp1560
I4
F-18.80545983887211
sI5
F99.07766279631453
sI6
F99.99999999999997
ssS'BBAAABB00'
p1561
(dp1562
I8
F-4.999999999999998
sI9
F-4.999999999999998
ssS'0B0BAA0B0'
p1563
(dp1564
I7
F-1.9283030694388983
sI1
F2.9014636485332366
sI3
F71.75904498155741
sI9
F56.4792498673874
ssS'BB0A0BA00'
p1565
(dp1566
I8
F-60.071924738638565
sI9
F-75.70350882498576
sI3
F-71.92552284276815
sI5
F-76.8830791966712
ssS'A0A00B0BB'
p1567
(dp1568
I2
F99.99999999999997
sI4
F10.117178087314453
sI5
F-6.567379584243234
sI7
F79.9999993355386
ssS'AABBA0BB0'
p1569
(dp1570
I9
F99.99999999999997
sI6
F-99.9999999378346
ssS'000BAA00B'
p1571
(dp1572
I8
F15.893666336485465
sI1
F-4.767850379134905
sI2
F4.59525152894147
sI3
F-14.67159841736148
sI7
F4.940599960855129
ssS'0B000AAB0'
p1573
(dp1574
I1
F12.475012925515271
sI3
F-5.2428799999999995
sI4
F-12.085395275776001
sI5
F75.25362339734855
sI9
F-38.048
ssS'ABAB0B0AB'
p1575
(dp1576
I5
F-4.999999999999998
sI7
F-99.9594351807927
ssS'00B0B0A00'
p1577
(dp1578
I1
F-7.636485244830017
sI2
F-60.243716728107
sI4
F-45.7498048192083
sI6
F-59.504636942083266
sI8
F-62.180698780582986
sI9
F-33.84173837909539
ssS'BBA00BBAA'
p1579
(dp1580
I4
F-4.999999999999998
sI5
F-99.69776854509635
ssS'BBAB0B0AA'
p1581
(dp1582
I5
F-99.80657186886167
sI7
F99.99999999999997
ssS'A0BAB00B0'
p1583
(dp1584
I9
F-55.61090183945829
sI2
F27.367165519890417
sI6
F-68.43705479446865
sI7
F99.99999999999997
ssS'0AAAB0BB0'
p1585
(dp1586
I1
F99.99999779144117
sI6
F-31.374817962857453
sI9
F73.1280523264
ssS'A0B0B0000'
p1587
(dp1588
I2
F-89.2367501807684
sI4
F-90.61253853365334
sI6
F-71.93939276931106
sI7
F7.066955623922981
sI8
F-82.45029925508025
sI9
F-94.70466120079153
ssS'AABBB0A0B'
p1589
(dp1590
I8
F-99.99976054757174
sI6
F-4.999999999999998
ssS'000AB0B0A'
p1591
(dp1592
I8
F-81.00590206629542
sI1
F-88.24199236888782
sI2
F-96.42040072586262
sI3
F-1.3432787329569165
sI6
F-59.813266448558515
ssS'000A0A0BB'
p1593
(dp1594
I1
F-20.0
sI2
F-0.09049734550606053
sI3
F-3.2
sI5
F89.26258176
sI7
I0
ssS'B0A0A00B0'
p1595
(dp1596
I9
F72.96675589590929
sI2
F-21.220809575040278
sI4
F79.83352593874422
sI6
F76.76351940833266
sI7
F99.99999999999997
ssS'ABABAB000'
p1597
(dp1598
I8
F79.98619930420162
sI9
F99.9594351807927
sI7
F99.99999999999997
ssS'0AAB0B0B0'
p1599
(dp1600
I1
F99.99999999999997
sI7
F65.47130833974906
sI5
F62.90943717529893
sI9
F-43.38916929628456
ssS'0B00AABBA'
p1601
(dp1602
I1
F99.99821594038411
sI3
F48.8
sI4
F36.0
ssS'ABAB000B0'
p1603
(dp1604
I9
F-76.49120455165833
sI5
F51.414431426991676
sI6
F-80.55130128647376
sI7
F-25.25052331069836
ssS'AB00ABA0B'
p1605
(dp1606
I8
F-60.95290207330025
sI3
F99.75821483607709
sI4
F99.99999999999997
ssS'0AA0ABBB0'
p1607
(dp1608
I1
F99.99999999999997
sI4
F-77.1683374419458
sI9
F31.046212290894786
ssS'ABAB0BABA'
p1609
(dp1610
I5
F99.4097041896413
ssS'000AB0B00'
p1611
(dp1612
I1
F-95.03152602771989
sI2
F-98.0981935144034
sI3
F-56.1597238875933
sI6
F-98.61401371233889
sI8
F-94.10607644532409
sI9
F-99.74202427395828
ssS'0A0BA0B00'
p1613
(dp1614
I8
F99.99999999999997
sI1
F66.5778818804147
sI3
F-26.773309916158365
sI6
F-29.954304
sI9
F-25.760000074106934
ssS'ABABAB00B'
p1615
(dp1616
I8
F-4.999999999999998
sI7
F99.99999999999997
ssS'000BBA0A0'
p1617
(dp1618
I1
F22.12976737137816
sI2
F-25.61906938995473
sI3
F12.353961748408189
sI9
F54.17315724299833
sI7
F-1.557175009676188
ssS'AAB0B00BA'
p1619
(dp1620
I4
F-84.47615228745848
sI6
F-84.77762432486728
sI7
F11.914904908258814
ssS'A0B0B0AAB'
p1621
(dp1622
I2
F-75.10659282033707
sI4
F79.99999999999999
sI6
F7.574450191360687
ssS'BA0BAB0BA'
p1623
(dp1624
I3
F-99.99999999999997
sI7
F-4.999999999999998
ssS'A0B0BA0B0'
p1625
(dp1626
I9
F-99.06814243953444
sI2
F-98.81286765020756
sI4
F-98.97369236538327
sI7
F-98.87863013356812
ssS'0AB0B0A0B'
p1627
(dp1628
I8
F-99.99765062895543
sI1
F-99.92856076678919
sI4
F-99.98642500917744
sI6
F-80.2792821192534
ssS'A0B000AB0'
p1629
(dp1630
I9
F74.92320366173587
sI2
F41.30697089576555
sI4
F99.99999999999997
sI5
F75.60129157631737
sI6
F59.93251912760585
ssS'BBAA0A0B0'
p1631
(dp1632
I9
F48.8
sI5
F99.84525749508933
sI7
F-0.703687441776637
ssS'BBAA00BBA'
p1633
(dp1634
I5
F-4.999999981473266
sI6
F99.99999999999997
ssS'B000AAB0B'
p1635
(dp1636
I8
F-79.4139423666603
sI2
F-97.0989221702134
sI3
F-85.9342836998809
sI4
F99.99999999999997
ssS'00AB0A0B0'
p1637
(dp1638
I1
F64.09177521236684
sI2
F66.1425705506532
sI7
F66.03633020339728
sI5
F76.90429077138232
sI9
F99.99999999999997
ssS'AA0BB0B00'
p1639
(dp1640
I8
F-58.169701466212636
sI9
F-59.27015024840839
sI3
F99.99999999999997
sI6
F23.468085765323536
ssS'0B0ABBAAB'
p1641
(dp1642
I1
F99.99999999999997
sI3
F-99.99149294082697
ssS'AB0B0AB00'
p1643
(dp1644
I8
F-21.678161842656984
sI9
F75.12306157791751
sI3
F20.45119834027189
sI5
F27.981805432038676
ssS'A0B0BAABB'
p1645
(dp1646
I2
F-4.9999999999999964
sI4
F99.99999999999997
ssS'B00BA00BA'
p1647
(dp1648
I2
F-76.86020127755216
sI3
F-98.3558442930162
sI6
F-78.0415765659248
sI7
F-5.471411535017927
ssS'A0BAA0BB0'
p1649
(dp1650
I9
F94.50244186112
sI2
F0.8558074863600993
sI6
F99.9999999837037
ssS'A0BBA0000'
p1651
(dp1652
I8
F75.66172914293355
sI9
F99.99999999999997
sI2
F78.78067546389076
sI6
F30.70455178787068
sI7
F9.716325900914654
ssS'BBA00AABB'
p1653
(dp1654
I4
F-99.80657186886167
sI5
F99.99999999999943
ssS'ABB0A0B00'
p1655
(dp1656
I8
F-19.332005426980515
sI9
F99.99999999999997
sI4
F76.86855652515466
sI6
F79.99954990127158
ssS'AAB00ABB0'
p1657
(dp1658
I9
F-15.39202510840694
sI4
F-67.232
sI5
F-58.971482198048186
ssS'0B0B0A0A0'
p1659
(dp1660
I1
F2.5587019257853667
sI3
F4.597191295531431
sI9
F26.17792522690383
sI5
I0
sI7
F11.50227582595157
ssS'0B0A0BBA0'
p1661
(dp1662
I1
F-12.438789716982056
sI3
F-3.9996983062681437
sI5
F-10.72571102363655
sI9
F-34.66256266583493
ssS'BA00AB00B'
p1663
(dp1664
I8
F99.99999999999997
sI3
F62.68943693480914
sI4
F-87.97080426690026
sI7
F-55.20982757631713
ssS'A000B0000'
p1665
(dp1666
I2
F-8.916408508241974
sI3
F-8.860639382620775
sI4
F-6.317720777813626
sI6
F-9.760824865975804
sI7
F-21.071867576161036
sI8
F23.237492148574113
sI9
F-6.022042779012619
ssS'BA00AB0BA'
p1667
(dp1668
I3
F37.305260723523276
sI4
F-3.927874341246171
sI7
F-3.7595148916552197
ssS'ABAB0BAB0'
p1669
(dp1670
I9
F-99.69776854509635
sI5
F99.99999999999784
ssS'A0B0B00AB'
p1671
(dp1672
I2
F-99.58417177646719
sI4
F-99.99944906513426
sI6
F-99.99915458346776
sI7
F-71.89541672462187
ssS'BABAA000B'
p1673
(dp1674
I8
F36.0
sI6
F99.97923081256586
sI7
F-36.0
ssS'AA0BAB0B0'
p1675
(dp1676
I9
F93.12805232640001
sI3
F99.99999999572802
sI7
F70.03132930365712
ssS'AB0ABAB0B'
p1677
(dp1678
I8
F-99.99987740035672
sI3
F-99.99984675044591
ssS'B00AB0B0A'
p1679
(dp1680
I8
F-81.03318445109008
sI2
F-35.70166987075596
sI3
F0.883537944099519
sI6
F-61.88821968647544
ssS'A0BBAA0B0'
p1681
(dp1682
I9
F99.99999999999997
sI2
F6.844842164729674
sI7
F16.449685242763895
ssS'BB0ABAB0A'
p1683
(dp1684
I8
F-99.26213023705162
sI3
F99.9999999837037
ssS'000A0BB00'
p1685
(dp1686
I1
F-65.28227802288913
sI2
F-46.96873943984676
sI3
F-0.5668587710453976
sI5
F-60.246054472487735
sI8
F-45.84710535791647
sI9
F-30.334819761879597
ssS'ABAAABB0B'
p1687
(dp1688
I8
F-4.999999999999998
ssS'BAAABBB00'
p1689
(dp1690
I8
F-99.99999779144117
sI9
F-4.999999999999998
ssS'ABA0ABBB0'
p1691
(dp1692
I9
F99.99999999999997
sI4
F-99.99999999999997
ssS'B0B00A0BA'
p1693
(dp1694
I2
F-65.19587816008719
sI4
F-84.45303935444727
sI5
F-86.34060184760142
sI7
F-78.18450258337471
ssS'0BB0A0A0B'
p1695
(dp1696
I8
F-99.62666485228495
sI1
F-99.40048292504933
sI4
F-98.96181319130662
sI6
F-88.44036483196042
ssS'0B0A0B0AB'
p1697
(dp1698
I1
F-42.601591438336605
sI3
F-14.158349414343746
sI5
F-51.66719999703572
sI7
F-33.68038613321201
ssS'BABAA00BB'
p1699
(dp1700
I6
F99.99999999999997
sI7
F-99.99999999999997
ssS'AABA0BBBA'
p1701
(dp1702
I5
F99.99999999987975
ssS'0BA00AB00'
p1703
(dp1704
I8
F37.98870361276722
sI1
F37.50516896224036
sI4
F67.26202009521167
sI5
F50.67649956293079
sI9
F99.99999999999997
ssS'A0A00B0B0'
p1705
(dp1706
I9
F79.97675179730413
sI2
F99.99999999999997
sI4
F60.22529081529677
sI5
F77.07983131238123
sI7
F62.87495372286624
ssS'A000B00BA'
p1707
(dp1708
I2
F8.757432160688461
sI3
F-79.6017740075408
sI4
F-59.36838927836675
sI6
F-86.21815221754703
sI7
F-94.31740529214389
ssS'00BB0ABA0'
p1709
(dp1710
I1
F-75.31607559275285
sI2
F-73.06117464473957
sI5
F-74.35378598181858
sI9
F-76.70158004962886
ssS'BBA0AB0AB'
p1711
(dp1712
I4
F-4.999999999999998
sI7
F99.99999999999997
ssS'B0000000A'
p1713
(dp1714
I2
F-2.575597945518514
sI3
F28.46563926229259
sI4
F-6.253210847410598
sI5
F4.54614969320669
sI6
F-6.7796539657778
sI7
F60.69982583872961
sI8
F-23.901257555249337
ssS'B0BA00000'
p1715
(dp1716
I2
F-63.42124200604485
sI5
F-80.91048861669994
sI6
F-96.92715311191583
sI7
F-93.66770400502153
sI8
F-91.56469960790868
sI9
F-98.49181907965011
ssS'A00B0BAAB'
p1717
(dp1718
I2
F-86.5782272
sI3
F-85.93859776785493
sI5
F-79.7607500110432
ssS'0B0A00BBA'
p1719
(dp1720
I1
F-9.517841941876721
sI3
F-7.4874605127059635
sI5
F64.37043639754513
sI6
F-2.1384733613038733
ssS'00BAB0000'
p1721
(dp1722
I1
F-87.97123319974037
sI2
F-91.61620952696492
sI6
F-98.33243392861365
sI7
F-54.31522938567886
sI8
F-92.14865083870632
sI9
F-89.812789172109
ssS'AB0A0B0BA'
p1723
(dp1724
I3
F-18.592460951154713
sI5
F20.0
sI7
F96.4815627911168
ssS'0A0BAB0BA'
p1725
(dp1726
I1
F99.99455548212926
sI3
F47.207241120753324
sI7
F52.410121561705495
ssS'B0B0B0A0A'
p1727
(dp1728
I8
F99.99999999999997
sI2
F10.559094735967737
sI4
F-77.46764453523429
sI6
F-96.80340587754226
ssS'00B00B00A'
p1729
(dp1730
I1
F-20.866720854962832
sI2
F-5.772544433597368
sI4
F1.0093289368006246
sI5
F31.10967833673044
sI7
F58.41442343616136
sI8
F24.3220702486707
ssS'0ABBB000A'
p1731
(dp1732
I8
F-79.33772416862396
sI1
F-81.72369481904072
sI6
F-82.97109364319697
sI7
F-81.6499434171454
ssS'ABB0AAB0B'
p1733
(dp1734
I8
F-4.999999999999998
sI4
F99.99999999999997
ssS'B0B0AA000'
p1735
(dp1736
I8
F-33.69453580495262
sI9
F-99.3355851336438
sI2
F73.90742923455937
sI4
F99.99999999999997
sI7
F-99.48276432423009
ssS'ABAAB000B'
p1737
(dp1738
I8
F20.081203140969077
sI6
F-51.745265822220986
sI7
F99.99999999332503
ssS'BB0B000AA'
p1739
(dp1740
I3
F22.762202099153374
sI5
F-61.955072481606
sI6
F-43.9034616298552
sI7
F99.99999999999997
ssS'BBA0A000B'
p1741
(dp1742
I8
F-6.863987629350838
sI4
F78.62703375859965
sI6
F77.15541288426088
sI7
F99.99999999999997
ssS'A0AB0B0AB'
p1743
(dp1744
I2
F99.99999326001333
sI5
F65.4854415078849
sI7
F-41.21840521720079
ssS'0BAAB0B00'
p1745
(dp1746
I8
F-15.515651781165394
sI1
F-73.44380286326967
sI6
F-74.12046961451509
sI9
F-57.7820622549303
ssS'00B0000BA'
p1747
(dp1748
I1
F-74.76655442537857
sI2
F-18.96103231410342
sI4
F-58.6208579423479
sI5
F6.28405693858897
sI6
F-66.67555585230562
sI7
F-59.028094427070705
ssS'B0AA0BB00'
p1749
(dp1750
I8
F-23.94907431169195
sI9
F-3.999999999999998
sI2
F-60.12318686743056
sI5
F-19.956384937602117
ssS'BA0ABB0A0'
p1751
(dp1752
I9
F16.281208053830238
sI3
F-36.0
sI7
F-48.80415383748683
ssS'A00000B00'
p1753
(dp1754
I2
F26.870992264772262
sI3
F35.374583536061174
sI4
F-11.193573079549388
sI5
F17.521002961408083
sI6
F19.203238089826968
sI8
F11.282778230806711
sI9
F1.7661174450060244
ssS'B000AB0BA'
p1755
(dp1756
I2
F-16.700026089266935
sI3
F-27.58326625896092
sI4
F-26.568090836729347
sI7
F-24.669538183502922
ssS'BA0AB0BBA'
p1757
(dp1758
I3
F-4.999999999999998
sI6
F-99.99998683596354
ssS'A0B00BAB0'
p1759
(dp1760
I9
F54.04634323294296
sI2
F-7.181279414938096
sI4
F99.99999999999997
sI5
F-4.1874848097188995
ssS'0AABB00BA'
p1761
(dp1762
I1
F99.99999997453705
sI6
F67.232
sI7
F-33.524264959566025
ssS'BBABAB0AA'
p1763
(dp1764
I7
F99.99999999999996
ssS'A00BBAB0A'
p1765
(dp1766
I8
F-64.0457390170811
sI2
F-60.480372894978714
sI3
F99.99999999999861
ssS'0B00BBAA0'
p1767
(dp1768
I1
F-50.717970415390994
sI3
F-55.843353891340975
sI4
F54.397808891392856
sI9
F99.99999999999997
ssS'0A0BBAA0B'
p1769
(dp1770
I8
F-98.3545624375794
sI1
F-0.7825492362416018
sI3
F-74.19466436313661
ssS'A0000A0BB'
p1771
(dp1772
I2
F-35.78781794599958
sI3
F15.585915261698101
sI4
F23.94473908416024
sI5
F2.187260801976141
sI7
F65.67100331630338
ssS'AB0B0AAB0'
p1773
(dp1774
I9
F-36.0
sI3
F-20.00000051581871
sI5
F79.99886499543742
ssS'BA0BB00AA'
p1775
(dp1776
I3
F-48.8
sI6
F-2.684354559999999
sI7
F99.26213023705162
ssS'0AB0A00BB'
p1777
(dp1778
I1
F-99.89011157755021
sI4
F-70.86715698158179
sI6
F-71.05765301740063
sI7
F-99.33972322377116
ssS'0BABABBA0'
p1779
(dp1780
I1
F-4.999999999999998
sI9
F-99.99999999999997
ssS'A0BB000BA'
p1781
(dp1782
I2
F-45.46238018648679
sI5
F99.99999999999997
sI6
F-16.41826849260435
sI7
F57.34647557854581
ssS'BAAABBB0A'
p1783
(dp1784
I8
F-4.999999999999998
ssS'AA00BAB0B'
p1785
(dp1786
I8
F-12.80001255420347
sI3
F99.98338465005268
sI4
F-73.7856
ssS'AB0BBAB0A'
p1787
(dp1788
I8
F-99.9999215362283
sI3
F99.99999999999997
ssS'A0BA0B0BA'
p1789
(dp1790
I2
F79.99966884173693
sI5
F73.7856
sI7
F59.04
ssS'00A0BB00A'
p1791
(dp1792
I8
F-90.95597404046718
sI1
F-87.43954670037851
sI2
F-78.8376168690637
sI4
F-2.7696742594705253
sI7
F-63.893737551493764
ssS'BA00A000B'
p1793
(dp1794
I8
F99.99999999999997
sI3
F30.41914286337146
sI4
F64.23008848061026
sI6
F64.11110301377668
sI7
F79.76668764403534
ssS'AABA0BBB0'
p1795
(dp1796
I9
F-99.99721240685018
sI5
F-99.99721240685018
ssS'0BA00AB0B'
p1797
(dp1798
I8
F-67.51046109344402
sI1
F-91.18236633211157
sI4
F-87.16247325532274
sI5
F-86.79099470102315
ssS'B00A00BAB'
p1799
(dp1800
I2
F-25.886923096759254
sI3
F-49.51253300610583
sI5
F75.74059155098425
sI6
F-80.52808136671332
ssS'AB0A00B00'
p1801
(dp1802
I8
F19.04576439415888
sI9
F-9.448259056983943
sI3
F-39.14629005980223
sI5
F65.34886946288053
sI6
F-7.34597998869269
ssS'0AAB0000B'
p1803
(dp1804
I8
F57.29355349181482
sI1
F99.99999999999997
sI5
F74.620512115311
sI6
F31.169763445723177
sI7
F73.3612442346028
ssS'ABBA000BA'
p1805
(dp1806
I5
F86.5782272
sI6
F22.146916352
sI7
F99.99993722898265
ssS'AAB0ABB00'
p1807
(dp1808
I8
F99.99999999999997
sI9
F99.4097041896413
sI4
F-79.45056538484823
ssS'ABBABB0A0'
p1809
(dp1810
I9
F-99.99997943119304
sI7
F99.99999999999997
ssS'0AA000B0B'
p1811
(dp1812
I8
F62.00504723839187
sI1
F99.99999999999997
sI4
F-30.596862778824168
sI5
F7.752427134200683
sI6
F-23.329437203866295
ssS'0BBABBA0A'
p1813
(dp1814
I8
F99.99999996021414
sI1
F99.99999999999997
ssS'B0A0A0BAB'
p1815
(dp1816
I2
F99.99999999999997
sI4
F79.9980318941788
sI6
F-83.98054063371582
ssS'A00BB000A'
p1817
(dp1818
I8
F-97.17294823206404
sI2
F-90.26125231141717
sI3
F-97.05088132492746
sI6
F-20.330327765704876
sI7
F-91.85593663259077
ssS'AABB00BA0'
p1819
(dp1820
I9
F-31.002879999999998
sI5
F99.4097041896413
sI6
F15.999936416760015
ssS'0B0B0000A'
p1821
(dp1822
I1
F5.313730182342383
sI3
F28.22774143249623
sI5
F10.979487354054651
sI6
F19.85235293095479
sI7
F15.779237386707985
sI8
F24.00569407729694
ssS'B0BA0ABA0'
p1823
(dp1824
I9
I0
sI2
F-20.0
sI5
F48.8
ssS'ABAABAB0B'
p1825
(dp1826
I8
F-4.999999999999355
ssS'0B00BA000'
p1827
(dp1828
I1
F-92.22122041544671
sI3
F-91.41617223261963
sI4
F-76.75520608670546
sI7
F-94.4625366764163
sI8
F-76.9125575354344
sI9
F-91.85291426746225
ssS'ABB00000A'
p1829
(dp1830
I8
F56.14248926898341
sI4
F78.1059332300405
sI5
F99.99999999999997
sI6
F39.48778098323753
sI7
F79.3886784610023
ssS'ABBA00BBA'
p1831
(dp1832
I5
F99.99999999999997
sI6
F-99.62221068137043
ssS'AA0BB00AB'
p1833
(dp1834
I3
F99.97923081256586
sI6
F2.0498725438499843
sI7
F-45.11117073037923
ssS'0ABB0AABB'
p1835
(dp1836
I1
F-4.999999999999998
sI5
F-4.999999999999998
ssS'BA0BBA000'
p1837
(dp1838
I8
F-97.75558285052702
sI9
F-99.3722662402163
sI3
F-97.43713391727081
sI7
F-97.26936304160772
ssS'0BBAA0A0B'
p1839
(dp1840
I8
F-36.0
sI1
F99.99941539934507
sI6
F86.5782272
ssS'ABBBAA00B'
p1841
(dp1842
I8
F-4.999999999999998
sI7
F-4.999999999999998
ssS'0BB0A00A0'
p1843
(dp1844
I1
F-18.892744284793192
sI4
F-95.72851870573011
sI9
F-42.11810071094986
sI6
F-82.26323126485025
sI7
F-91.86543194112137
ssS'BA0B0AABB'
p1845
(dp1846
I3
F-97.18525023289344
sI5
F-4.999999663000667
ssS'0A0BAABB0'
p1847
(dp1848
I1
F-91.90583520897353
sI3
F-86.5782272
sI9
F-86.48121514765904
ssS'0B0BA0B0A'
p1849
(dp1850
I8
F-12.013567733312623
sI1
F99.99999999999997
sI3
F-22.851528441335155
sI6
F-27.64337065102648
ssS'0BBA00000'
p1851
(dp1852
I1
F12.488750766411062
sI5
F-36.81011619070429
sI6
F-30.868882591450763
sI7
F-27.287805654463654
sI8
F-45.22343089842961
sI9
F-56.637695557830476
ssS'0A0AB0BAB'
p1853
(dp1854
I1
F-85.58641809024145
sI3
F-83.222784
sI6
F-83.222784
ssS'00AA000BB'
p1855
(dp1856
I1
F-42.142164992000005
sI2
F11.807929661761971
sI5
F5.760000000000001
sI6
F-1.5616000000000003
sI7
F66.29163096216757
ssS'A0BBABBA0'
p1857
(dp1858
I9
F99.99999723930146
sI2
F99.99999999999997
ssS'0B000A000'
p1859
(dp1860
I1
F25.930539892487513
sI3
F34.74223256141592
sI4
F-37.76471206140366
sI5
F31.009916350015153
sI7
F26.367092903322742
sI8
F22.92379066982717
sI9
F-18.334067822365533
ssS'ABABABB00'
p1861
(dp1862
I8
F-4.999999999999998
sI9
F99.99999999999997
ssS'BA00ABABB'
p1863
(dp1864
I3
F99.99999999999997
sI4
F-99.99999999999997
ssS'BABABB00A'
p1865
(dp1866
I8
F-99.99999999781275
sI7
F-4.999999999999998
ssS'AA0BBA0BB'
p1867
(dp1868
I3
F99.99999999999997
sI7
F-4.999999999582815
ssS'BBAAAB0AB'
p1869
(dp1870
I7
F99.99999999999997
ssS'00000BBA0'
p1871
(dp1872
I1
F-25.231337813308954
sI2
F-10.215226417573707
sI3
F-15.684193382436586
sI4
F-21.696091423824775
sI5
F1.635097034974737
sI9
F-26.39929717542356
ssS'0A0A00BB0'
p1873
(dp1874
I1
F-29.11360000000778
sI3
F-20.0
sI5
F-0.12799643188076823
sI6
F-16.231096729600004
sI9
F23.28348765389958
ssS'00ABB0AAB'
p1875
(dp1876
I1
F-77.554378502043
sI2
F-79.02848
sI6
F-79.84387339036114
ssS'A00B00B0A'
p1877
(dp1878
I8
F64.8458129001418
sI2
F59.546261842459884
sI3
F79.75080940701362
sI5
F99.99999999999997
sI6
F76.47662284609757
ssS'0BBAA0BBA'
p1879
(dp1880
I1
F99.99999999999997
sI6
F99.99999927629945
ssS'0BBABB0AA'
p1881
(dp1882
I1
F-99.99994978318611
sI7
F99.99999999999997
ssS'AABAB00B0'
p1883
(dp1884
I9
F-62.131188240785846
sI6
F-53.86047026862765
sI7
F99.9999999916563
ssS'BBA000A0B'
p1885
(dp1886
I8
F2.644624902159258
sI4
F-5.176005290428993
sI5
F99.99999999999997
sI6
F7.422645221893671
ssS'ABBB0AA00'
p1887
(dp1888
I8
F41.39898720491412
sI9
F79.99999990885955
sI5
F19.93641790957235
ssS'0BAA0B00B'
p1889
(dp1890
I8
F-9.805018963180725
sI1
F-0.9176269444453466
sI5
F-0.03300966597971611
sI7
F53.719044994505225
ssS'BB00BAAA0'
p1891
(dp1892
I9
F99.99970068446467
sI3
F-50.15974258872112
sI4
F-73.7856
ssS'0ABB000AB'
p1893
(dp1894
I1
F-33.27614076129237
sI5
F99.99999999999997
sI6
F58.669619914347635
sI7
F-74.37034512958525
ssS'0BB0A0000'
p1895
(dp1896
I1
F16.961367751274498
sI4
F-81.28163349380931
sI6
F-80.69476548913215
sI7
F-76.31508709800764
sI8
F-97.57499179120661
sI9
F-98.92268550480696
ssS'B00A0BA0B'
p1897
(dp1898
I8
F-86.10850756480205
sI2
F-93.439076258213
sI3
F2.276427395237892
sI5
F10.45751966934975
ssS'BABA00000'
p1899
(dp1900
I8
F-5.760000000000001
sI9
F1.223031405412352
sI5
F55.79015237635801
sI6
F0.99894471903926
sI7
I0
ssS'ABA0BB0AB'
p1901
(dp1902
I4
F-4.999999999999998
sI7
F-99.99999999999997
ssS'BB0A0A0B0'
p1903
(dp1904
I9
F18.431948592348817
sI3
F2.7935700652407895
sI5
F99.99999858652235
sI7
F-36.64324119522488
ssS'AABAB00BB'
p1905
(dp1906
I6
F-99.98670772004215
sI7
F99.99999999999997
ssS'0AABB0BA0'
p1907
(dp1908
I1
F99.69776854509635
sI6
F-59.04
sI9
F-36.0
ssS'00AB0AB0B'
p1909
(dp1910
I8
F-53.43541225510243
sI1
F-67.14684882295421
sI2
F-76.51434815087808
sI5
F-78.76320405586007
ssS'A0BA00B0B'
p1911
(dp1912
I8
F-90.52265869831795
sI2
F-97.74820018631475
sI5
F-48.08958229972261
sI6
F-72.12008135677617
ssS'BBA000AB0'
p1913
(dp1914
I9
F-16.632928740008293
sI4
F-12.221360798264907
sI5
F99.99999999999997
sI6
F-27.781135670078545
ssS'00BABBA0A'
p1915
(dp1916
I8
F91.41006540800001
sI1
F99.99999999999174
sI2
F73.0796204646492
ssS'B00BAA0B0'
p1917
(dp1918
I9
F-83.08336767197667
sI2
F-89.64058057126886
sI3
F-99.97128780018417
sI7
F2.3890792179344302
ssS'B0A0A000B'
p1919
(dp1920
I8
F79.17743688235254
sI2
F46.50981359695656
sI4
F78.49484034734695
sI6
F69.5843870603954
sI7
F99.99999999999997
ssS'00BABB0A0'
p1921
(dp1922
I1
F-29.198805893124053
sI2
F-78.076379568837
sI7
F-16.740442166908288
sI9
F-29.54159264468376
ssS'BBA00BA00'
p1923
(dp1924
I8
F6.539419683360137
sI9
F69.43846133949351
sI4
F-7.596922759991095
sI5
F99.99999999999997
ssS'0B0BA0AB0'
p1925
(dp1926
I1
F58.126144922497346
sI3
F99.99999999999997
sI6
F26.76055358651663
sI9
F51.52057368107813
ssS'BABAA0B0B'
p1927
(dp1928
I8
F99.9999999982502
sI6
F99.99999999999997
ssS'BAA0BAB00'
p1929
(dp1930
I8
F-89.26258176
sI9
F99.99999823315294
sI4
F-17.300917126109308
ssS'0BAAA0BB0'
p1931
(dp1932
I1
F-34.85131776354427
sI6
F99.99999987858321
sI9
F66.12781715088845
ssS'AA0BAB0BB'
p1933
(dp1934
I3
F99.99999999999997
sI7
F-99.99995982654889
ssS'0B0BBAAA0'
p1935
(dp1936
I1
F17.17815519850948
sI3
F4.818817451925693
sI9
F99.99455548212926
ssS'0B00ABA0B'
p1937
(dp1938
I8
F-6.795557813233636
sI1
F-6.920340859580936
sI3
F99.99999999999997
sI4
F-60.134225191567985
ssS'A0A0B0B00'
p1939
(dp1940
I8
F33.948647148075345
sI9
F44.12855954002422
sI2
F99.99999999999997
sI4
F15.645517837638431
sI6
F56.79713336119357
ssS'A00BABBAB'
p1941
(dp1942
I2
F99.99999999999997
sI3
F-4.999999999999998
ssS'AB00BB00A'
p1943
(dp1944
I8
F-56.79325622964467
sI3
F-98.1233540212645
sI4
F-91.20625765205062
sI7
F-98.24521838369677
ssS'BAA0A0BB0'
p1945
(dp1946
I9
F-99.49988770849788
sI4
F-82.10196712050033
sI6
F-99.99885820184583
ssS'0BA00A0BB'
p1947
(dp1948
I1
F-85.6145116374609
sI4
F-53.112751871363116
sI5
F-14.910914663195449
sI7
F-6.613972711353512
ssS'ABA00BBA0'
p1949
(dp1950
I9
F10.619756003131892
sI4
F-3.482640433858714
sI5
F9.755365808628165
ssS'00BA0BB0A'
p1951
(dp1952
I8
F-99.7477784015565
sI1
F-98.2933882817636
sI2
F-92.86484036565672
sI5
F-24.844412826318354
ssS'0A0BABB0A'
p1953
(dp1954
I8
F83.222784
sI1
F99.99990192028538
sI3
F-24.596480000042614
ssS'00BBA0A00'
p1955
(dp1956
I8
F57.66935920074736
sI1
F-13.84416105433568
sI2
F4.665283338355504
sI6
F-20.88343374088561
sI9
F30.89703113396095
ssS'00AA00B0B'
p1957
(dp1958
I8
F-14.225871480515305
sI1
F-54.09650217337007
sI2
F-68.14967266235351
sI5
F-43.124216371432716
sI6
F-69.42411613578722
ssS'AAB00BAB0'
p1959
(dp1960
I9
F77.1852488840734
sI4
F99.99999999992303
sI5
F13.93548647957687
ssS'A0B00BBA0'
p1961
(dp1962
I9
F-90.97695970086227
sI2
F-92.2204595542916
sI4
F-90.59341907414446
sI5
F-90.29506930142857
ssS'AB0ABAB00'
p1963
(dp1964
I8
F-79.02848
sI9
F-79.02848
sI3
F-62.2157948603292
ssS'B0B00000A'
p1965
(dp1966
I2
F-45.863813711260406
sI4
F-96.60428824612735
sI5
F-83.3485753196471
sI6
F-90.00612096420083
sI7
F-79.29252417002367
sI8
F-87.09055148824555
ssS'0BABB0AAB'
p1967
(dp1968
I1
F-99.99999999999997
sI6
F-99.99999999999997
ssS'00BABA0B0'
p1969
(dp1970
I1
F-81.43596328590915
sI2
F-80.40129521553774
sI7
F-84.48641889948352
sI9
F-84.92576043335265
ssS'A00BBAA0B'
p1971
(dp1972
I8
F-3.9999986218085986
sI2
F-1.6933630406385851
sI3
F-2.4764671009572687
ssS'0A00ABB0B'
p1973
(dp1974
I8
F99.99999999999997
sI1
F-84.6413985803025
sI3
F-43.04406868100313
sI4
F-91.48065304863341
ssS'00ABAB000'
p1975
(dp1976
I8
F69.40823215392055
sI1
F77.62620216949723
sI2
F77.67511126967618
sI7
F99.99999999999997
sI9
F76.69880898455719
ssS'AB0BAA00B'
p1977
(dp1978
I8
F-3.9006081789802103
sI3
F-2.711777277828474
sI7
F-2.735960257057295
ssS'AB0B0ABBA'
p1979
(dp1980
I3
F99.99999999999997
sI5
F99.9985727523073
ssS'A00B0ABB0'
p1981
(dp1982
I9
F63.57214815604422
sI2
F-77.0306075292967
sI3
F-74.26447632707053
sI5
F-10.119657036230851
ssS'BAAB000AB'
p1983
(dp1984
I5
F91.41006540800001
sI6
F-20.0
sI7
I0
ssS'A0BBA00B0'
p1985
(dp1986
I9
F99.99999999999997
sI2
F-21.324740348246877
sI6
F-7.162808819042823
sI7
F0.6420866800588809
ssS'ABABB00A0'
p1987
(dp1988
I9
F-76.16661638560876
sI6
F18.010329773545084
sI7
F-99.42496806885664
ssS'BB0AA00AB'
p1989
(dp1990
I3
F79.99999766315517
sI6
F83.222784
sI7
F-55.98848514220174
ssS'0000BAB0A'
p1991
(dp1992
I8
F-46.37312953395954
sI1
F-78.59329135656589
sI2
F-2.7222561841338972
sI3
F99.99999999999997
sI4
F-79.09374601806806
ssS'A0000ABB0'
p1993
(dp1994
I9
F52.076318032076315
sI2
F-1.8757563320619273
sI3
F-0.9506123681427567
sI4
F-39.028706918400005
sI5
F27.673960764354984
ssS'A0BB00BAA'
p1995
(dp1996
I2
F-63.469018440589636
sI5
F99.99999823315294
sI6
F-12.80000022615642
ssS'BBAAABBA0'
p1997
(dp1998
I9
F-4.999999999999998
ssS'0B0BBA0AA'
p1999
(dp2000
I1
F79.99912570011652
sI3
F67.232
sI7
F97.74820018631475
ssS'B0B0A00BA'
p2001
(dp2002
I2
F-22.83979153156085
sI4
F-90.67961597003742
sI6
F-96.72866952547545
sI7
F-81.29786503934504
ssS'BBAB0AA00'
p2003
(dp2004
I8
F27.700394836119216
sI9
F83.222784
sI5
F99.99990192028538
ssS'A0BB0A00B'
p2005
(dp2006
I8
F-5.306968936793156
sI2
F-70.76800007869896
sI5
F-27.26544989051751
sI7
F-3.999999999999998
ssS'ABBAABB00'
p2007
(dp2008
I8
F-99.99999999781275
sI9
F99.99999999999997
ssS'ABBAA0B0B'
p2009
(dp2010
I8
F-99.99999996021414
sI6
F99.99999999999997
ssS'ABB00ABAB'
p2011
(dp2012
I4
F-99.99999460801067
sI5
F-4.999999999999998
ssS'B0BAA00B0'
p2013
(dp2014
I9
F-48.12595056434858
sI2
F-9.250182668657224
sI6
F99.99999999999997
sI7
F-87.66631469195679
ssS'BA00BABA0'
p2015
(dp2016
I9
I0
sI3
F-20.0
sI4
F-20.0
ssS'A000A0BB0'
p2017
(dp2018
I9
F99.99999999999997
sI2
F-31.321822062920567
sI3
F-31.8552748437385
sI4
F-1.7876445340128484
sI6
F-27.799580057880906
ssS'0A0A000BB'
p2019
(dp2020
I1
I0
sI3
I0
sI5
I0
sI6
I0
sI7
F52.063602657134346
ssS'AB0BB0AAB'
p2021
(dp2022
I3
F-99.99999999999997
sI6
F-3.999999999999999
ssS'BAB0AA0BB'
p2023
(dp2024
I4
F99.99999999999997
sI7
F-4.999999999999998
ssS'A0BAB000B'
p2025
(dp2026
I8
F-61.32071727076407
sI2
F-61.91308020457139
sI6
F-21.69765260479845
sI7
F99.99999999999997
ssS'AB0BBAA0B'
p2027
(dp2028
I8
F-3.999999999999999
sI3
F-99.99999999999997
ssS'B00A0AB0B'
p2029
(dp2030
I8
F-4.093662479084966
sI2
F-46.20309827578293
sI3
F-73.19314463996778
sI5
F99.99999999999997
ssS'00A00BAB0'
p2031
(dp2032
I1
F64.91629871655186
sI2
F71.8377478922312
sI4
F72.30857394070729
sI5
F99.99999999999997
sI9
F14.634660653872102
ssS'AA0BB0BAB'
p2033
(dp2034
I3
F99.99999999999997
sI6
F-99.98670772004215
ssS'0B00BAAAB'
p2035
(dp2036
I1
F-3.4763385096061477
sI3
F-93.34482259327567
sI4
F-98.96534586924166
ssS'0B0AB000A'
p2037
(dp2038
I8
F4.768593211357503
sI1
F-88.06072849832572
sI3
F-73.14579962405034
sI6
F-73.34913237715209
sI7
F-31.35316908159984
ssS'00AA0BBB0'
p2039
(dp2040
I1
F-63.9541352688177
sI2
F-77.71221453741734
sI5
F-72.18744267802806
sI9
F-4.078006168759311
ssS'BBA0AAB00'
p2041
(dp2042
I8
F4.091241029143056
sI9
F99.99999999332503
sI4
F67.232
ssS'A000AB0B0'
p2043
(dp2044
I9
F99.99999999999997
sI2
F73.90731991685648
sI3
F73.70466201313748
sI4
F64.85081789981446
sI7
F67.20213175887639
ssS'00A0BA0B0'
p2045
(dp2046
I1
F-60.69332841025363
sI2
F78.82736351748595
sI7
F-71.9257553438102
sI4
F-48.94004139857702
sI9
F99.99999999999997
ssS'BBABB0AA0'
p2047
(dp2048
I9
F99.99999999999997
sI6
F-99.99990192028538
ssS'B00ABABA0'
p2049
(dp2050
I9
F-61.396460301302284
sI2
F-67.232
sI3
F-69.60397250600228
ssS'A0BBB00AA'
p2051
(dp2052
I2
F-73.7856
sI6
F-33.50861280067981
sI7
F99.99980843805739
ssS'0AB0B00A0'
p2053
(dp2054
I1
F-76.70274742114688
sI7
F-28.443988631904283
sI4
F-79.02848
sI6
F-80.27588409353491
sI9
F-82.43109693881617
ssS'BA000BA0B'
p2055
(dp2056
I8
F-61.61699507469326
sI3
F-66.60073558973237
sI4
F-78.22203332303529
sI5
F-68.77458793147106
ssS'BAAA0B00B'
p2057
(dp2058
I8
F-20.0
sI5
F77.45705475410843
sI7
I0
ssS'B0ABBAA00'
p2059
(dp2060
I8
F-46.63838838038108
sI9
F99.99999999928329
sI2
F-61.79113581954357
ssS'000A00B0B'
p2061
(dp2062
I1
F-91.79759375417473
sI2
F-97.04836480215833
sI3
F-98.7168479788865
sI5
F-88.9986607676742
sI6
F-98.29557054486546
sI8
F-45.574846212853416
ssS'A000AB0BB'
p2063
(dp2064
I2
F-95.37094570118786
sI3
F-86.63622373479345
sI4
F-97.95663705514224
sI7
F-95.50041811178275
ssS'A000ABBAB'
p2065
(dp2066
I2
F99.99999999999997
sI3
F19.82042297032656
sI4
F-59.3739486184469
ssS'0A0B0A00B'
p2067
(dp2068
I8
F6.013670696816599
sI1
F9.663831166770798
sI3
F-26.769552448123168
sI5
F3.0081556447693676
sI7
F-0.3362603690240391
ssS'A00B0A0BB'
p2069
(dp2070
I2
F-59.53680696967948
sI3
F-96.39140703866272
sI5
F-94.74898075481872
sI7
F-29.025788371469822
ssS'A000BBBAA'
p2071
(dp2072
I2
F-86.5782272
sI3
F-86.96920995470362
sI4
F-83.79653352268835
ssS'B00AABA0B'
p2073
(dp2074
I8
F-95.4624473372564
sI2
F-68.10320154429405
sI3
F99.99999999999997
ssS'BAB0BAA00'
p2075
(dp2076
I8
F-69.44413434908931
sI9
F37.90566331261567
sI4
F-99.90916283833522
ssS'BAAA000BB'
p2077
(dp2078
I5
F-45.07293162147326
sI6
F-48.8
sI7
F-46.12191339539849
ssS'0AAABBBBA'
p2079
(dp2080
I1
F99.99999999999997
ssS'A0AB00ABB'
p2081
(dp2082
I2
F99.94929397599087
sI5
F99.99999999999997
sI6
F79.9999998766112
ssS'AAB0AB0B0'
p2083
(dp2084
I9
F99.99999999999174
sI4
F-54.60243629374857
sI7
F-83.76642619012591
ssS'00B0BAAAB'
p2085
(dp2086
I1
F11.956979664232938
sI2
F-89.00699544737633
sI4
F-90.00220209497226
ssS'B00BAB00A'
p2087
(dp2088
I8
F-77.58230041721698
sI2
F-69.76942107043348
sI3
F-53.80030762251116
sI7
F52.259652290992456
ssS'AB0AAB0B0'
p2089
(dp2090
I9
F94.50244186112
sI3
F69.24670081879954
sI7
F99.99999999976515
ssS'A000BAB00'
p2091
(dp2092
I8
F-72.85280593969252
sI9
F-59.61048570578008
sI2
F-3.6893858858011903
sI3
F67.63770549154958
sI4
F-62.18414850740872
ssS'BBAB0AA0B'
p2093
(dp2094
I8
F-99.99149294082697
sI5
F99.99999999999997
ssS'A0BB0A000'
p2095
(dp2096
I8
F-2.185565943283839
sI9
F0.8682204005706224
sI2
F-1.3592859348330601
sI5
F7.9707843361061315
sI7
F5.460498739495982
ssS'0A00ABBBA'
p2097
(dp2098
I1
F99.99999999999997
sI3
F10.990613552741106
sI4
F8.20398637471406
ssS'BBABAA0B0'
p2099
(dp2100
I9
F99.99999999999997
sI7
F99.99999999332503
ssS'B0A0AB000'
p2101
(dp2102
I8
F57.64479134346652
sI9
F2.5806434935214373
sI2
F76.12783435013942
sI4
F35.188095838021766
sI7
F99.99999999999997
ssS'000BA00AB'
p2103
(dp2104
I1
F12.1506299850818
sI2
F99.99999999999997
sI3
F71.48374654977513
sI6
F20.152310669980658
sI7
F69.02563333374243
ssS'BA0AABBB0'
p2105
(dp2106
I9
F-4.999999999999998
sI3
F-99.99999999999997
ssS'00000B0AB'
p2107
(dp2108
I1
F-86.55265945149604
sI2
F-64.82097197291242
sI3
F-78.32617333464289
sI4
F-97.17039208406257
sI5
F-95.41516419615566
sI7
F-93.4930808630809
ssS'00000000B'
p2109
(dp2110
I1
F-33.35029787772975
sI2
F-49.92984874820962
sI3
F-53.26264374155044
sI4
F-33.76857696496292
sI5
F13.33317011715876
sI6
F-61.32151514033447
sI7
F-34.83392931822007
sI8
F-44.22569975684861
ssS'AB0BAA0B0'
p2111
(dp2112
I9
F99.99149294082697
sI3
F28.79999999985612
sI7
I0
ssS'ABA00B000'
p2113
(dp2114
I8
F18.25241546163552
sI9
F-56.448123150466586
sI4
F21.144150068854955
sI5
F47.557982658525134
sI7
F75.38752350995776
ssS'A0AABBB0B'
p2115
(dp2116
I8
F-4.999999999999998
sI2
F99.99999999999997
ssS'0B000B0AA'
p2117
(dp2118
I1
F71.93275895914122
sI3
F39.85706671800667
sI4
F66.5778611472666
sI5
F75.08256489055606
sI7
F99.99999999999997
ssS'ABBBAAAB0'
p2119
(dp2120
I9
F99.99999999999997
ssS'BAB00AB00'
p2121
(dp2122
I8
F-99.98094141545018
sI9
F-99.66767108619148
sI4
F-69.87986360556482
sI5
F-99.6855174177558
ssS'BAAABBBA0'
p2123
(dp2124
I9
F-4.999999999999998
ssS'0BBAB0AAB'
p2125
(dp2126
I1
F99.99999999999997
sI6
F-99.93661746998859
ssS'00A00B00B'
p2127
(dp2128
I1
F44.601099257784156
sI2
F9.988371610788175
sI4
F4.203208731187926
sI5
F-4.282014020001748
sI7
F-1.291062826112448
sI8
F-10.776248026293814
ssS'0AAB000B0'
p2129
(dp2130
I1
F99.99999999999997
sI7
F29.08964517646036
sI5
F58.71257393962979
sI6
F63.129820799280765
sI9
F63.71619523257484
ssS'B0BBAAA00'
p2131
(dp2132
I8
F-78.93072255176618
sI9
F-61.797415581335486
sI2
F16.84793616821972
ssS'BA00ABBBA'
p2133
(dp2134
I3
F-99.99999999999997
sI4
F-4.999999999999998
ssS'ABBA0000B'
p2135
(dp2136
I8
F-10.153682099158825
sI5
F-10.291402046470779
sI6
F74.52305994247406
sI7
F99.99999999999997
ssS'000BB0BAA'
p2137
(dp2138
I1
F-96.51499314574245
sI2
F-99.98670772004215
sI3
F-99.9823922173164
sI6
F-99.988017431634
ssS'00AB0B0A0'
p2139
(dp2140
I1
F25.2105871203364
sI2
F7.2585634775039996
sI7
I0
sI5
F73.99739256682248
sI9
F7.2284069337573875
ssS'AB000ABB0'
p2141
(dp2142
I9
F-98.4492210180433
sI3
F-84.69107537876951
sI4
F-97.3200115029412
sI5
F-85.20662486274918
ssS'00A0BB0A0'
p2143
(dp2144
I1
F-87.23028909090938
sI2
F-92.21405356609239
sI7
F-93.96300868748396
sI4
F-21.451644878357477
sI9
F-92.85337479920867
ssS'0BAB0AA0B'
p2145
(dp2146
I8
F-2.619810059060683
sI1
F55.45346424463973
sI5
F99.99962585558085
ssS'BBA0B0BAA'
p2147
(dp2148
I4
F-4.999999999999998
sI6
F99.99999999999997
ssS'0A0B0A0BB'
p2149
(dp2150
I1
F-33.73244559991593
sI3
F-56.59456290585883
sI5
F-34.988367036158536
sI7
F-10.598150320427457
ssS'AA0ABB00B'
p2151
(dp2152
I8
F-55.996592963841465
sI3
F89.26258176
sI7
F99.99999927629945
ssS'ABAAAB0BB'
p2153
(dp2154
I7
F99.99999999999997
ssS'A000B00B0'
p2155
(dp2156
I2
F16.932633617310547
sI3
F-94.77093397151023
sI4
F-99.63419677826302
sI6
F-66.44569771990365
sI7
F-76.07729700822078
sI9
F-93.63671672347077
ssS'A0AB0B000'
p2157
(dp2158
I8
F-55.228527230296805
sI9
F-15.07121151971155
sI2
F99.99999999999997
sI5
F77.19593820136492
sI7
F-50.0403333750526
ssS'ABB0000BA'
p2159
(dp2160
I4
F-51.866401140340464
sI5
F99.99999999999997
sI6
F-25.50433620301658
sI7
F65.18822552019637
ssS'BBAB0BA0A'
p2161
(dp2162
I8
F99.99999981028625
sI5
F99.99999999999997
ssS'BBAA0AB00'
p2163
(dp2164
I8
F67.333272906426
sI9
F59.04
sI5
F99.99999998696296
ssS'BA0B00A00'
p2165
(dp2166
I8
F37.12839585338625
sI9
F37.78559864316214
sI3
F-15.679168512
sI5
F67.17989590895033
sI6
F7.08882745062806
ssS'00A000BBA'
p2167
(dp2168
I1
F79.99203481363729
sI2
F78.24426405249817
sI4
F61.505792696255696
sI5
F75.04270924043111
sI6
F99.99999999999997
ssS'B00BBAAA0'
p2169
(dp2170
I9
F98.84707849539316
sI2
F-29.954304
sI3
F-0.45035996273704626
ssS'AB0BA0BA0'
p2171
(dp2172
I9
F99.99999999999997
sI3
F11.930333131101566
sI6
F4.896509645556819
ssS'BABABB0A0'
p2173
(dp2174
I9
F-99.96754814463415
sI7
F-99.93661746998859
ssS'ABAA0BBBA'
p2175
(dp2176
I5
F99.99999999999997
ssS'BAA00BBAB'
p2177
(dp2178
I4
F-99.9594351807927
sI5
F99.99999999999997
ssS'BAA00BA0B'
p2179
(dp2180
I8
F-42.5536
sI4
F-49.25545760062857
sI5
F99.99319435266158
ssS'BB0B0A0AA'
p2181
(dp2182
I3
F99.62221068137043
sI5
F-20.0
sI7
I0
ssS'A00A0BB00'
p2183
(dp2184
I8
F-4.6181546944274015
sI9
F5.266148939640824
sI2
F3.4336881715271232
sI3
F6.3659574409794235
sI5
F-47.116835786189235
ssS'ABAA0B00B'
p2185
(dp2186
I8
F28.95265650003575
sI5
F33.129676867833396
sI7
F99.9999999378346
ssS'0BAA0AB0B'
p2187
(dp2188
I8
F40.51413443324074
sI1
F-17.14422763431193
sI5
F99.99319435266158
ssS'AB0A0B000'
p2189
(dp2190
I8
F47.045772211870585
sI9
F69.69616557339845
sI3
F30.567061086694586
sI5
F73.70366671038971
sI7
F99.99999999999997
ssS'A000B0B00'
p2191
(dp2192
I2
F-77.67394735354448
sI3
F0.5876463354344001
sI4
F-99.9212267039705
sI6
F-97.54808775981516
sI8
F-94.21143389098377
sI9
F-98.06562467766462
ssS'AA0BB000B'
p2193
(dp2194
I8
F-66.71408106133616
sI3
F99.99999999999997
sI6
F22.48875762529521
sI7
F-27.306441628410685
ssS'0A00000BB'
p2195
(dp2196
I1
F-79.49334673394719
sI3
F-99.44293615101739
sI4
F-89.77729751101933
sI5
F-94.77479692884417
sI6
F-94.5537474782969
sI7
F-28.821996079604844
ssS'0BBAB00A0'
p2197
(dp2198
I1
F-20.128127996942766
sI7
F-12.250821926574268
sI6
F-89.41691944782369
sI9
F-33.16371174661325
ssS'ABAA00B0B'
p2199
(dp2200
I8
F-3.9999957953315466
sI5
F-63.95519998586523
sI6
F-51.05587413133094
ssS'BABABA0B0'
p2201
(dp2202
I9
F-99.98338465005268
sI7
F-99.98670772004215
ssS'BA0A0000B'
p2203
(dp2204
I8
F-15.392
sI3
F-20.74010482731621
sI5
F70.96725326205876
sI6
F-15.392
sI7
I0
ssS'BA0BAA0BB'
p2205
(dp2206
I3
F-99.99970068446467
sI7
F-4.999999999999998
ssS'B0A0A0B00'
p2207
(dp2208
I8
F-94.69694482912868
sI9
F-81.71394622478326
sI2
F-85.73724601519979
sI4
F8.968095958351395
sI6
F-96.17153425484041
ssS'BAA00BBA0'
p2209
(dp2210
I9
F-31.39199352628328
sI4
F31.45723862849497
sI5
F20.0
ssS'BB0B0A0A0'
p2211
(dp2212
I9
F-78.7933970940449
sI3
F-80.21855995562424
sI5
F-77.9702272
sI7
F-80.77332387245346
ssS'A0BBABAB0'
p2213
(dp2214
I9
F99.99999999999997
sI2
F-99.99999999999997
ssS'B0000BABA'
p2215
(dp2216
I2
F-4.009786378909425
sI3
F-61.47314790525806
sI4
F-74.03624694704575
sI5
F-25.491933881049597
ssS'0A00000B0'
p2217
(dp2218
I1
F5.223095923443289
sI3
F9.299302778395509
sI4
F5.466002660857685
sI5
F4.310707669465895
sI6
F8.026528093156125
sI7
F6.264865259998055
sI9
F8.049088378960496
ssS'A000B0B0A'
p2219
(dp2220
I8
F-62.30444302566643
sI2
F-64.29373959135921
sI3
F62.70974620193569
sI4
F-76.38092433414366
sI6
F-36.118185097970226
ssS'AA0BB0000'
p2221
(dp2222
I8
F-59.035950565066315
sI9
F7.399794869197068
sI3
F99.99999999999997
sI6
F25.81200032020628
sI7
F-54.1301677607036
ssS'A0B0BB00A'
p2223
(dp2224
I8
F-95.5543892117463
sI2
F-99.99354150115863
sI4
F-93.65335074516327
sI7
F-93.65203405214467
ssS'B00AB00A0'
p2225
(dp2226
I9
F18.348092313466264
sI2
F-88.75772732386596
sI3
F-55.986755661508155
sI6
F-95.48899575993474
sI7
F-99.34941208351452
ssS'0ABB0B00A'
p2227
(dp2228
I8
F4.978051102359995
sI1
F-20.330340065616
sI5
F67.61671218445534
sI7
F7.994778427180222
ssS'B0000AABB'
p2229
(dp2230
I2
F-54.181440617671534
sI3
F-54.54156631408316
sI4
F-29.70292059915214
sI5
F73.69013064010177
ssS'BBAABA000'
p2231
(dp2232
I8
I0
sI9
F99.94929397599087
sI7
F-67.232
ssS'00A0BBA0B'
p2233
(dp2234
I8
F-99.1480236649516
sI1
F-99.99275073129559
sI2
F-86.40535814642301
sI4
F-87.65992287730178
ssS'0BABAAB00'
p2235
(dp2236
I8
F-97.47446715742515
sI1
F15.277101927094435
sI9
F99.99999999999997
ssS'B0000ABA0'
p2237
(dp2238
I9
F-59.04
sI2
F-48.22118604800001
sI3
F-53.872648024523365
sI4
F-17.97569923594683
sI5
F-40.99712
ssS'ABABB000A'
p2239
(dp2240
I8
F20.08105861883387
sI6
F99.99999999999997
sI7
F-93.12805232640001
ssS'BAB00A000'
p2241
(dp2242
I8
F7.808
sI9
I0
sI4
F-0.025600000000000008
sI5
F65.04835289877008
sI7
F2.751345245930185
ssS'A00A0BBBA'
p2243
(dp2244
I2
F79.99964289836386
sI3
F56.87580405460119
sI5
F73.7856
ssS'ABAA0BBB0'
p2245
(dp2246
I9
F-99.99976054757174
sI5
F-99.99970068446467
ssS'BBA000B0A'
p2247
(dp2248
I8
F-32.13595449148853
sI4
F27.87178535616512
sI5
F-49.934896024204434
sI6
F99.99999999999997
ssS'000BAB000'
p2249
(dp2250
I1
F36.838557590377576
sI2
F34.84829672555271
sI3
F29.07489951536057
sI7
F60.769065670419934
sI8
F35.07754729416403
sI9
F28.67320766548832
ssS'ABBBB00AA'
p2251
(dp2252
I6
F-99.99776992548014
sI7
F99.99999999999997
ssS'0A00B0000'
p2253
(dp2254
I1
F-26.477773701404658
sI3
F-27.529182825550016
sI4
F-25.030480924957086
sI6
F-22.176262582265892
sI7
F-24.12948098468067
sI8
F-39.492835831494936
sI9
F5.87016430708175
ssS'00ABA0B00'
p2255
(dp2256
I8
F-50.10708096619686
sI1
F76.43185731967316
sI2
F-81.90741970342081
sI6
F-99.27296657930503
sI9
F-70.16783199011117
ssS'AB0000000'
p2257
(dp2258
I3
F3.804423441458235
sI4
F44.75475772989372
sI5
F41.676662667039544
sI6
F14.98318740265197
sI7
F32.78744206918812
sI8
F20.368873624308787
sI9
F20.003895396749762
ssS'B0AABAB00'
p2259
(dp2260
I8
F-28.39026733461392
sI9
F99.99999326001333
sI2
F-67.56633005922374
ssS'B000BABA0'
p2261
(dp2262
I9
F-71.20097083680363
sI2
F-83.222784
sI3
F-49.47996249871229
sI4
F-78.53147203562173
ssS'BB00AAA0B'
p2263
(dp2264
I8
F-65.34456492543659
sI3
F99.99999999466003
sI4
F79.02848
ssS'0AB000BA0'
p2265
(dp2266
I1
F15.107247232115345
sI4
I0
sI5
I0
sI6
I0
sI9
F-3.2
ssS'0A0BAAB0B'
p2267
(dp2268
I8
F99.99998683596354
sI1
F-96.4815627911168
sI3
F-86.5782272
ssS'BAAB0A0B0'
p2269
(dp2270
I9
F89.26258176
sI5
F-31.61438953472
sI7
F28.799999999939224
ssS'ABAABBB0A'
p2271
(dp2272
I8
F-4.999999999999998
ssS'B00BAA00B'
p2273
(dp2274
I8
F-71.09570183556397
sI2
F-95.772828190208
sI3
F-91.99751738830125
sI7
F-16.970615386268864
ssS'ABBBAAA0B'
p2275
(dp2276
I8
F-4.999999999999998
ssS'B00AAB0B0'
p2277
(dp2278
I9
F-19.31378366385117
sI2
F-79.57088180429979
sI3
F-12.408345859150112
sI7
F-68.41644821751154
ssS'00B00AA0B'
p2279
(dp2280
I8
F-4.081270609384763
sI1
F22.69900668459644
sI2
F21.834916396105175
sI4
F62.87775999387199
sI5
F26.75172977699137
sssS'rewards'
p2281
(lp2282
I-100
aI100
aI-5
aI-5
aI-5
aI-5
as.